
EncoderInput.elf:     file format elf32-littlearm

Sections:
Idx Name          Size      VMA       LMA       File off  Algn
  0 .text         00003ba0  00080000  00080000  00008000  2**2
                  CONTENTS, ALLOC, LOAD, READONLY, CODE
  1 .ARM.exidx    00000008  00083ba0  00083ba0  0000bba0  2**2
                  CONTENTS, ALLOC, LOAD, READONLY, DATA
  2 .relocate     0000095c  20070000  00083ba8  00010000  2**3
                  CONTENTS, ALLOC, LOAD, CODE
  3 .bss          000000d8  2007095c  00084504  0001095c  2**2
                  ALLOC
  4 .stack        00002004  20070a34  000845dc  0001095c  2**0
                  ALLOC
  5 .ARM.attributes 00000029  00000000  00000000  0001095c  2**0
                  CONTENTS, READONLY
  6 .comment      0000005b  00000000  00000000  00010985  2**0
                  CONTENTS, READONLY
  7 .debug_frame  00000ce4  00000000  00000000  000109e0  2**2
                  CONTENTS, READONLY, DEBUGGING

Disassembly of section .text:

00080000 <_sfixed>:
   80000:	20072a38 	.word	0x20072a38
   80004:	000807b9 	.word	0x000807b9
   80008:	000807b5 	.word	0x000807b5
   8000c:	000807b5 	.word	0x000807b5
   80010:	000807b5 	.word	0x000807b5
   80014:	000807b5 	.word	0x000807b5
   80018:	000807b5 	.word	0x000807b5
	...
   8002c:	000807b5 	.word	0x000807b5
   80030:	000807b5 	.word	0x000807b5
   80034:	00000000 	.word	0x00000000
   80038:	000807b5 	.word	0x000807b5
   8003c:	000807b5 	.word	0x000807b5
   80040:	000807b5 	.word	0x000807b5
   80044:	000807b5 	.word	0x000807b5
   80048:	000807b5 	.word	0x000807b5
   8004c:	000807b5 	.word	0x000807b5
   80050:	000807b5 	.word	0x000807b5
   80054:	000807b5 	.word	0x000807b5
   80058:	000807b5 	.word	0x000807b5
   8005c:	000807b5 	.word	0x000807b5
   80060:	000807b5 	.word	0x000807b5
   80064:	000807b5 	.word	0x000807b5
   80068:	00000000 	.word	0x00000000
   8006c:	000805e5 	.word	0x000805e5
   80070:	000805f9 	.word	0x000805f9
   80074:	0008060d 	.word	0x0008060d
   80078:	00080621 	.word	0x00080621
	...
   80084:	000807b5 	.word	0x000807b5
   80088:	000807b5 	.word	0x000807b5
   8008c:	000807b5 	.word	0x000807b5
   80090:	000807b5 	.word	0x000807b5
   80094:	000807b5 	.word	0x000807b5
   80098:	000807b5 	.word	0x000807b5
   8009c:	000807b5 	.word	0x000807b5
   800a0:	000807b5 	.word	0x000807b5
   800a4:	00000000 	.word	0x00000000
   800a8:	000807b5 	.word	0x000807b5
   800ac:	000807b5 	.word	0x000807b5
   800b0:	000807b5 	.word	0x000807b5
   800b4:	000807b5 	.word	0x000807b5
   800b8:	000807b5 	.word	0x000807b5
   800bc:	000807b5 	.word	0x000807b5
   800c0:	000807b5 	.word	0x000807b5
   800c4:	000807b5 	.word	0x000807b5
   800c8:	000807b5 	.word	0x000807b5
   800cc:	000807b5 	.word	0x000807b5
   800d0:	000807b5 	.word	0x000807b5
   800d4:	000807b5 	.word	0x000807b5
   800d8:	000807b5 	.word	0x000807b5
   800dc:	000807b5 	.word	0x000807b5
   800e0:	000807b5 	.word	0x000807b5
   800e4:	000807b5 	.word	0x000807b5
   800e8:	000807b5 	.word	0x000807b5
   800ec:	000807b5 	.word	0x000807b5
   800f0:	000807b5 	.word	0x000807b5

000800f4 <__do_global_dtors_aux>:
   800f4:	b510      	push	{r4, lr}
   800f6:	4c05      	ldr	r4, [pc, #20]	; (8010c <__do_global_dtors_aux+0x18>)
   800f8:	7823      	ldrb	r3, [r4, #0]
   800fa:	b933      	cbnz	r3, 8010a <__do_global_dtors_aux+0x16>
   800fc:	4b04      	ldr	r3, [pc, #16]	; (80110 <__do_global_dtors_aux+0x1c>)
   800fe:	b113      	cbz	r3, 80106 <__do_global_dtors_aux+0x12>
   80100:	4804      	ldr	r0, [pc, #16]	; (80114 <__do_global_dtors_aux+0x20>)
   80102:	f3af 8000 	nop.w
   80106:	2301      	movs	r3, #1
   80108:	7023      	strb	r3, [r4, #0]
   8010a:	bd10      	pop	{r4, pc}
   8010c:	2007095c 	.word	0x2007095c
   80110:	00000000 	.word	0x00000000
   80114:	00083ba8 	.word	0x00083ba8

00080118 <frame_dummy>:
   80118:	4b08      	ldr	r3, [pc, #32]	; (8013c <frame_dummy+0x24>)
   8011a:	b510      	push	{r4, lr}
   8011c:	b11b      	cbz	r3, 80126 <frame_dummy+0xe>
   8011e:	4808      	ldr	r0, [pc, #32]	; (80140 <frame_dummy+0x28>)
   80120:	4908      	ldr	r1, [pc, #32]	; (80144 <frame_dummy+0x2c>)
   80122:	f3af 8000 	nop.w
   80126:	4808      	ldr	r0, [pc, #32]	; (80148 <frame_dummy+0x30>)
   80128:	6803      	ldr	r3, [r0, #0]
   8012a:	b903      	cbnz	r3, 8012e <frame_dummy+0x16>
   8012c:	bd10      	pop	{r4, pc}
   8012e:	4b07      	ldr	r3, [pc, #28]	; (8014c <frame_dummy+0x34>)
   80130:	2b00      	cmp	r3, #0
   80132:	d0fb      	beq.n	8012c <frame_dummy+0x14>
   80134:	e8bd 4010 	ldmia.w	sp!, {r4, lr}
   80138:	4718      	bx	r3
   8013a:	bf00      	nop
   8013c:	00000000 	.word	0x00000000
   80140:	00083ba8 	.word	0x00083ba8
   80144:	20070960 	.word	0x20070960
   80148:	00083ba8 	.word	0x00083ba8
   8014c:	00000000 	.word	0x00000000

00080150 <_read>:
   80150:	b570      	push	{r4, r5, r6, lr}
   80152:	460e      	mov	r6, r1
   80154:	4614      	mov	r4, r2
   80156:	b970      	cbnz	r0, 80176 <_read+0x26>
   80158:	4615      	mov	r5, r2
   8015a:	1b61      	subs	r1, r4, r5
   8015c:	2d00      	cmp	r5, #0
   8015e:	4431      	add	r1, r6
   80160:	dd06      	ble.n	80170 <_read+0x20>
   80162:	4b06      	ldr	r3, [pc, #24]	; (8017c <_read+0x2c>)
   80164:	3d01      	subs	r5, #1
   80166:	6818      	ldr	r0, [r3, #0]
   80168:	4b05      	ldr	r3, [pc, #20]	; (80180 <_read+0x30>)
   8016a:	681b      	ldr	r3, [r3, #0]
   8016c:	4798      	blx	r3
   8016e:	e7f4      	b.n	8015a <_read+0xa>
   80170:	ea24 70e4 	bic.w	r0, r4, r4, asr #31
   80174:	bd70      	pop	{r4, r5, r6, pc}
   80176:	f04f 30ff 	mov.w	r0, #4294967295
   8017a:	bd70      	pop	{r4, r5, r6, pc}
   8017c:	20070a2c 	.word	0x20070a2c
   80180:	20070a24 	.word	0x20070a24

00080184 <usart_write>:
   80184:	6943      	ldr	r3, [r0, #20]
   80186:	079b      	lsls	r3, r3, #30
   80188:	bf43      	ittte	mi
   8018a:	f3c1 0108 	ubfxmi	r1, r1, #0, #9
   8018e:	61c1      	strmi	r1, [r0, #28]
   80190:	2000      	movmi	r0, #0
   80192:	2001      	movpl	r0, #1
   80194:	4770      	bx	lr

00080196 <usart_read>:
   80196:	6943      	ldr	r3, [r0, #20]
   80198:	07db      	lsls	r3, r3, #31
   8019a:	bf41      	itttt	mi
   8019c:	6983      	ldrmi	r3, [r0, #24]
   8019e:	2000      	movmi	r0, #0
   801a0:	f3c3 0308 	ubfxmi	r3, r3, #0, #9
   801a4:	600b      	strmi	r3, [r1, #0]
   801a6:	bf58      	it	pl
   801a8:	2001      	movpl	r0, #1
   801aa:	4770      	bx	lr

000801ac <_write>:
   801ac:	3801      	subs	r0, #1
   801ae:	2802      	cmp	r0, #2
   801b0:	b570      	push	{r4, r5, r6, lr}
   801b2:	460e      	mov	r6, r1
   801b4:	d80e      	bhi.n	801d4 <_write+0x28>
   801b6:	460c      	mov	r4, r1
   801b8:	188d      	adds	r5, r1, r2
   801ba:	42ac      	cmp	r4, r5
   801bc:	eba4 0006 	sub.w	r0, r4, r6
   801c0:	d00b      	beq.n	801da <_write+0x2e>
   801c2:	4b06      	ldr	r3, [pc, #24]	; (801dc <_write+0x30>)
   801c4:	f814 1b01 	ldrb.w	r1, [r4], #1
   801c8:	6818      	ldr	r0, [r3, #0]
   801ca:	4b05      	ldr	r3, [pc, #20]	; (801e0 <_write+0x34>)
   801cc:	681b      	ldr	r3, [r3, #0]
   801ce:	4798      	blx	r3
   801d0:	2800      	cmp	r0, #0
   801d2:	daf2      	bge.n	801ba <_write+0xe>
   801d4:	f04f 30ff 	mov.w	r0, #4294967295
   801d8:	bd70      	pop	{r4, r5, r6, pc}
   801da:	bd70      	pop	{r4, r5, r6, pc}
   801dc:	20070a2c 	.word	0x20070a2c
   801e0:	20070a28 	.word	0x20070a28

000801e4 <uart_init>:
   801e4:	23ac      	movs	r3, #172	; 0xac
   801e6:	b510      	push	{r4, lr}
   801e8:	6003      	str	r3, [r0, #0]
   801ea:	684a      	ldr	r2, [r1, #4]
   801ec:	680b      	ldr	r3, [r1, #0]
   801ee:	fbb3 f3f2 	udiv	r3, r3, r2
   801f2:	f64f 72fe 	movw	r2, #65534	; 0xfffe
   801f6:	091b      	lsrs	r3, r3, #4
   801f8:	1e5c      	subs	r4, r3, #1
   801fa:	4294      	cmp	r4, r2
   801fc:	bf9f      	itttt	ls
   801fe:	6203      	strls	r3, [r0, #32]
   80200:	688b      	ldrls	r3, [r1, #8]
   80202:	6043      	strls	r3, [r0, #4]
   80204:	f240 2302 	movwls	r3, #514	; 0x202
   80208:	bf9f      	itttt	ls
   8020a:	f8c0 3120 	strls.w	r3, [r0, #288]	; 0x120
   8020e:	2350      	movls	r3, #80	; 0x50
   80210:	6003      	strls	r3, [r0, #0]
   80212:	2000      	movls	r0, #0
   80214:	bf88      	it	hi
   80216:	2001      	movhi	r0, #1
   80218:	bd10      	pop	{r4, pc}

0008021a <uart_write>:
   8021a:	6943      	ldr	r3, [r0, #20]
   8021c:	079b      	lsls	r3, r3, #30
   8021e:	bf46      	itte	mi
   80220:	61c1      	strmi	r1, [r0, #28]
   80222:	2000      	movmi	r0, #0
   80224:	2001      	movpl	r0, #1
   80226:	4770      	bx	lr

00080228 <uart_read>:
   80228:	6943      	ldr	r3, [r0, #20]
   8022a:	07db      	lsls	r3, r3, #31
   8022c:	bf43      	ittte	mi
   8022e:	6983      	ldrmi	r3, [r0, #24]
   80230:	2000      	movmi	r0, #0
   80232:	700b      	strbmi	r3, [r1, #0]
   80234:	2001      	movpl	r0, #1
   80236:	4770      	bx	lr

00080238 <sysclk_init>:
   80238:	b510      	push	{r4, lr}
   8023a:	480e      	ldr	r0, [pc, #56]	; (80274 <sysclk_init+0x3c>)
   8023c:	4c0e      	ldr	r4, [pc, #56]	; (80278 <sysclk_init+0x40>)
   8023e:	47a0      	blx	r4
   80240:	2000      	movs	r0, #0
   80242:	213e      	movs	r1, #62	; 0x3e
   80244:	4b0d      	ldr	r3, [pc, #52]	; (8027c <sysclk_init+0x44>)
   80246:	4798      	blx	r3
   80248:	4b0d      	ldr	r3, [pc, #52]	; (80280 <sysclk_init+0x48>)
   8024a:	4798      	blx	r3
   8024c:	2800      	cmp	r0, #0
   8024e:	d0fb      	beq.n	80248 <sysclk_init+0x10>
   80250:	4b0c      	ldr	r3, [pc, #48]	; (80284 <sysclk_init+0x4c>)
   80252:	4798      	blx	r3
   80254:	4a0c      	ldr	r2, [pc, #48]	; (80288 <sysclk_init+0x50>)
   80256:	4b0d      	ldr	r3, [pc, #52]	; (8028c <sysclk_init+0x54>)
   80258:	629a      	str	r2, [r3, #40]	; 0x28
   8025a:	4b0d      	ldr	r3, [pc, #52]	; (80290 <sysclk_init+0x58>)
   8025c:	4798      	blx	r3
   8025e:	2800      	cmp	r0, #0
   80260:	d0fb      	beq.n	8025a <sysclk_init+0x22>
   80262:	4b0c      	ldr	r3, [pc, #48]	; (80294 <sysclk_init+0x5c>)
   80264:	2010      	movs	r0, #16
   80266:	4798      	blx	r3
   80268:	4b0b      	ldr	r3, [pc, #44]	; (80298 <sysclk_init+0x60>)
   8026a:	4798      	blx	r3
   8026c:	4801      	ldr	r0, [pc, #4]	; (80274 <sysclk_init+0x3c>)
   8026e:	47a0      	blx	r4
   80270:	bd10      	pop	{r4, pc}
   80272:	bf00      	nop
   80274:	0501bd00 	.word	0x0501bd00
   80278:	20070089 	.word	0x20070089
   8027c:	000806fd 	.word	0x000806fd
   80280:	00080749 	.word	0x00080749
   80284:	00080759 	.word	0x00080759
   80288:	200d3f01 	.word	0x200d3f01
   8028c:	400e0600 	.word	0x400e0600
   80290:	00080769 	.word	0x00080769
   80294:	000806b9 	.word	0x000806b9
   80298:	00080839 	.word	0x00080839

0008029c <board_init>:
   8029c:	4b17      	ldr	r3, [pc, #92]	; (802fc <board_init+0x60>)
   8029e:	f44f 4200 	mov.w	r2, #32768	; 0x8000
   802a2:	b510      	push	{r4, lr}
   802a4:	200b      	movs	r0, #11
   802a6:	605a      	str	r2, [r3, #4]
   802a8:	4c15      	ldr	r4, [pc, #84]	; (80300 <board_init+0x64>)
   802aa:	47a0      	blx	r4
   802ac:	200c      	movs	r0, #12
   802ae:	47a0      	blx	r4
   802b0:	200d      	movs	r0, #13
   802b2:	47a0      	blx	r4
   802b4:	200e      	movs	r0, #14
   802b6:	47a0      	blx	r4
   802b8:	4c12      	ldr	r4, [pc, #72]	; (80304 <board_init+0x68>)
   802ba:	f04f 5160 	mov.w	r1, #939524096	; 0x38000000
   802be:	203b      	movs	r0, #59	; 0x3b
   802c0:	47a0      	blx	r4
   802c2:	f04f 5160 	mov.w	r1, #939524096	; 0x38000000
   802c6:	2055      	movs	r0, #85	; 0x55
   802c8:	47a0      	blx	r4
   802ca:	f04f 5160 	mov.w	r1, #939524096	; 0x38000000
   802ce:	2056      	movs	r0, #86	; 0x56
   802d0:	47a0      	blx	r4
   802d2:	490d      	ldr	r1, [pc, #52]	; (80308 <board_init+0x6c>)
   802d4:	2068      	movs	r0, #104	; 0x68
   802d6:	47a0      	blx	r4
   802d8:	490c      	ldr	r1, [pc, #48]	; (8030c <board_init+0x70>)
   802da:	205c      	movs	r0, #92	; 0x5c
   802dc:	47a0      	blx	r4
   802de:	4a0c      	ldr	r2, [pc, #48]	; (80310 <board_init+0x74>)
   802e0:	4b0c      	ldr	r3, [pc, #48]	; (80314 <board_init+0x78>)
   802e2:	f44f 7140 	mov.w	r1, #768	; 0x300
   802e6:	480c      	ldr	r0, [pc, #48]	; (80318 <board_init+0x7c>)
   802e8:	4798      	blx	r3
   802ea:	f04f 6100 	mov.w	r1, #134217728	; 0x8000000
   802ee:	202b      	movs	r0, #43	; 0x2b
   802f0:	47a0      	blx	r4
   802f2:	f04f 6100 	mov.w	r1, #134217728	; 0x8000000
   802f6:	202a      	movs	r0, #42	; 0x2a
   802f8:	47a0      	blx	r4
   802fa:	bd10      	pop	{r4, pc}
   802fc:	400e1a50 	.word	0x400e1a50
   80300:	00080779 	.word	0x00080779
   80304:	000803fd 	.word	0x000803fd
   80308:	28000079 	.word	0x28000079
   8030c:	28000001 	.word	0x28000001
   80310:	08000001 	.word	0x08000001
   80314:	000804c1 	.word	0x000804c1
   80318:	400e0e00 	.word	0x400e0e00

0008031c <pio_set_debounce_filter>:
   8031c:	0052      	lsls	r2, r2, #1
   8031e:	f44f 4300 	mov.w	r3, #32768	; 0x8000
   80322:	fbb3 f2f2 	udiv	r2, r3, r2
   80326:	3a01      	subs	r2, #1
   80328:	f3c2 020d 	ubfx	r2, r2, #0, #14
   8032c:	f8c0 1084 	str.w	r1, [r0, #132]	; 0x84
   80330:	f8c0 208c 	str.w	r2, [r0, #140]	; 0x8c
   80334:	4770      	bx	lr

00080336 <pio_set_peripheral>:
   80336:	f1b1 5f80 	cmp.w	r1, #268435456	; 0x10000000
   8033a:	6442      	str	r2, [r0, #68]	; 0x44
   8033c:	d014      	beq.n	80368 <pio_set_peripheral+0x32>
   8033e:	d809      	bhi.n	80354 <pio_set_peripheral+0x1e>
   80340:	b1b1      	cbz	r1, 80370 <pio_set_peripheral+0x3a>
   80342:	f1b1 6f00 	cmp.w	r1, #134217728	; 0x8000000
   80346:	d112      	bne.n	8036e <pio_set_peripheral+0x38>
   80348:	6f03      	ldr	r3, [r0, #112]	; 0x70
   8034a:	6f01      	ldr	r1, [r0, #112]	; 0x70
   8034c:	400b      	ands	r3, r1
   8034e:	ea23 0302 	bic.w	r3, r3, r2
   80352:	e00b      	b.n	8036c <pio_set_peripheral+0x36>
   80354:	f1b1 5f40 	cmp.w	r1, #805306368	; 0x30000000
   80358:	d00a      	beq.n	80370 <pio_set_peripheral+0x3a>
   8035a:	f1b1 5f60 	cmp.w	r1, #939524096	; 0x38000000
   8035e:	d007      	beq.n	80370 <pio_set_peripheral+0x3a>
   80360:	f1b1 5f20 	cmp.w	r1, #671088640	; 0x28000000
   80364:	d103      	bne.n	8036e <pio_set_peripheral+0x38>
   80366:	4770      	bx	lr
   80368:	6f03      	ldr	r3, [r0, #112]	; 0x70
   8036a:	4313      	orrs	r3, r2
   8036c:	6703      	str	r3, [r0, #112]	; 0x70
   8036e:	6042      	str	r2, [r0, #4]
   80370:	4770      	bx	lr

00080372 <pio_set_input>:
   80372:	07d3      	lsls	r3, r2, #31
   80374:	6441      	str	r1, [r0, #68]	; 0x44
   80376:	bf4c      	ite	mi
   80378:	6641      	strmi	r1, [r0, #100]	; 0x64
   8037a:	6601      	strpl	r1, [r0, #96]	; 0x60
   8037c:	f012 0f0a 	tst.w	r2, #10
   80380:	bf14      	ite	ne
   80382:	6201      	strne	r1, [r0, #32]
   80384:	6241      	streq	r1, [r0, #36]	; 0x24
   80386:	0793      	lsls	r3, r2, #30
   80388:	d502      	bpl.n	80390 <pio_set_input+0x1e>
   8038a:	f8c0 1080 	str.w	r1, [r0, #128]	; 0x80
   8038e:	e003      	b.n	80398 <pio_set_input+0x26>
   80390:	0713      	lsls	r3, r2, #28
   80392:	bf48      	it	mi
   80394:	f8c0 1084 	strmi.w	r1, [r0, #132]	; 0x84
   80398:	6141      	str	r1, [r0, #20]
   8039a:	6001      	str	r1, [r0, #0]
   8039c:	4770      	bx	lr

0008039e <pio_set_output>:
   8039e:	b510      	push	{r4, lr}
   803a0:	9c02      	ldr	r4, [sp, #8]
   803a2:	6441      	str	r1, [r0, #68]	; 0x44
   803a4:	b10c      	cbz	r4, 803aa <pio_set_output+0xc>
   803a6:	6641      	str	r1, [r0, #100]	; 0x64
   803a8:	e000      	b.n	803ac <pio_set_output+0xe>
   803aa:	6601      	str	r1, [r0, #96]	; 0x60
   803ac:	b10b      	cbz	r3, 803b2 <pio_set_output+0x14>
   803ae:	6501      	str	r1, [r0, #80]	; 0x50
   803b0:	e000      	b.n	803b4 <pio_set_output+0x16>
   803b2:	6541      	str	r1, [r0, #84]	; 0x54
   803b4:	b10a      	cbz	r2, 803ba <pio_set_output+0x1c>
   803b6:	6301      	str	r1, [r0, #48]	; 0x30
   803b8:	e000      	b.n	803bc <pio_set_output+0x1e>
   803ba:	6341      	str	r1, [r0, #52]	; 0x34
   803bc:	6101      	str	r1, [r0, #16]
   803be:	6001      	str	r1, [r0, #0]
   803c0:	bd10      	pop	{r4, pc}

000803c2 <pio_configure_interrupt>:
   803c2:	06d3      	lsls	r3, r2, #27
   803c4:	d50e      	bpl.n	803e4 <pio_configure_interrupt+0x22>
   803c6:	0693      	lsls	r3, r2, #26
   803c8:	f8c0 10b0 	str.w	r1, [r0, #176]	; 0xb0
   803cc:	bf4c      	ite	mi
   803ce:	f8c0 10d4 	strmi.w	r1, [r0, #212]	; 0xd4
   803d2:	f8c0 10d0 	strpl.w	r1, [r0, #208]	; 0xd0
   803d6:	0653      	lsls	r3, r2, #25
   803d8:	bf4c      	ite	mi
   803da:	f8c0 10c0 	strmi.w	r1, [r0, #192]	; 0xc0
   803de:	f8c0 10c4 	strpl.w	r1, [r0, #196]	; 0xc4
   803e2:	4770      	bx	lr
   803e4:	f8c0 10b4 	str.w	r1, [r0, #180]	; 0xb4
   803e8:	4770      	bx	lr

000803ea <pio_enable_interrupt>:
   803ea:	6cc3      	ldr	r3, [r0, #76]	; 0x4c
   803ec:	6401      	str	r1, [r0, #64]	; 0x40
   803ee:	4770      	bx	lr

000803f0 <pio_disable_interrupt>:
   803f0:	6441      	str	r1, [r0, #68]	; 0x44
   803f2:	4770      	bx	lr

000803f4 <pio_get_interrupt_status>:
   803f4:	6cc0      	ldr	r0, [r0, #76]	; 0x4c
   803f6:	4770      	bx	lr

000803f8 <pio_get_interrupt_mask>:
   803f8:	6c80      	ldr	r0, [r0, #72]	; 0x48
   803fa:	4770      	bx	lr

000803fc <pio_configure_pin>:
   803fc:	b5f7      	push	{r0, r1, r2, r4, r5, r6, r7, lr}
   803fe:	0945      	lsrs	r5, r0, #5
   80400:	460e      	mov	r6, r1
   80402:	f505 1500 	add.w	r5, r5, #2097152	; 0x200000
   80406:	f001 41f0 	and.w	r1, r1, #2013265920	; 0x78000000
   8040a:	f205 7507 	addw	r5, r5, #1799	; 0x707
   8040e:	f1b1 5f20 	cmp.w	r1, #671088640	; 0x28000000
   80412:	ea4f 2545 	mov.w	r5, r5, lsl #9
   80416:	d02b      	beq.n	80470 <pio_configure_pin+0x74>
   80418:	d814      	bhi.n	80444 <pio_configure_pin+0x48>
   8041a:	f1b1 6f00 	cmp.w	r1, #134217728	; 0x8000000
   8041e:	d018      	beq.n	80452 <pio_configure_pin+0x56>
   80420:	f1b1 5f80 	cmp.w	r1, #268435456	; 0x10000000
   80424:	d142      	bne.n	804ac <pio_configure_pin+0xb0>
   80426:	f000 021f 	and.w	r2, r0, #31
   8042a:	2001      	movs	r0, #1
   8042c:	fa00 f302 	lsl.w	r3, r0, r2
   80430:	646b      	str	r3, [r5, #68]	; 0x44
   80432:	6f2a      	ldr	r2, [r5, #112]	; 0x70
   80434:	431a      	orrs	r2, r3
   80436:	672a      	str	r2, [r5, #112]	; 0x70
   80438:	07f2      	lsls	r2, r6, #31
   8043a:	606b      	str	r3, [r5, #4]
   8043c:	bf4c      	ite	mi
   8043e:	666b      	strmi	r3, [r5, #100]	; 0x64
   80440:	662b      	strpl	r3, [r5, #96]	; 0x60
   80442:	e034      	b.n	804ae <pio_configure_pin+0xb2>
   80444:	f1b1 5f40 	cmp.w	r1, #805306368	; 0x30000000
   80448:	d01c      	beq.n	80484 <pio_configure_pin+0x88>
   8044a:	f1b1 5f60 	cmp.w	r1, #939524096	; 0x38000000
   8044e:	d019      	beq.n	80484 <pio_configure_pin+0x88>
   80450:	e02c      	b.n	804ac <pio_configure_pin+0xb0>
   80452:	f000 001f 	and.w	r0, r0, #31
   80456:	2401      	movs	r4, #1
   80458:	fa04 f700 	lsl.w	r7, r4, r0
   8045c:	463a      	mov	r2, r7
   8045e:	4628      	mov	r0, r5
   80460:	4b14      	ldr	r3, [pc, #80]	; (804b4 <pio_configure_pin+0xb8>)
   80462:	4798      	blx	r3
   80464:	07f1      	lsls	r1, r6, #31
   80466:	bf4c      	ite	mi
   80468:	666f      	strmi	r7, [r5, #100]	; 0x64
   8046a:	662f      	strpl	r7, [r5, #96]	; 0x60
   8046c:	4620      	mov	r0, r4
   8046e:	e01e      	b.n	804ae <pio_configure_pin+0xb2>
   80470:	f000 021f 	and.w	r2, r0, #31
   80474:	2401      	movs	r4, #1
   80476:	fa04 f102 	lsl.w	r1, r4, r2
   8047a:	4628      	mov	r0, r5
   8047c:	4632      	mov	r2, r6
   8047e:	4b0e      	ldr	r3, [pc, #56]	; (804b8 <pio_configure_pin+0xbc>)
   80480:	4798      	blx	r3
   80482:	e7f3      	b.n	8046c <pio_configure_pin+0x70>
   80484:	2401      	movs	r4, #1
   80486:	f006 5260 	and.w	r2, r6, #939524096	; 0x38000000
   8048a:	ea06 0304 	and.w	r3, r6, r4
   8048e:	9300      	str	r3, [sp, #0]
   80490:	f102 4348 	add.w	r3, r2, #3355443200	; 0xc8000000
   80494:	425a      	negs	r2, r3
   80496:	f000 011f 	and.w	r1, r0, #31
   8049a:	415a      	adcs	r2, r3
   8049c:	4628      	mov	r0, r5
   8049e:	fa04 f101 	lsl.w	r1, r4, r1
   804a2:	f3c6 0380 	ubfx	r3, r6, #2, #1
   804a6:	4d05      	ldr	r5, [pc, #20]	; (804bc <pio_configure_pin+0xc0>)
   804a8:	47a8      	blx	r5
   804aa:	e7df      	b.n	8046c <pio_configure_pin+0x70>
   804ac:	2000      	movs	r0, #0
   804ae:	b003      	add	sp, #12
   804b0:	bdf0      	pop	{r4, r5, r6, r7, pc}
   804b2:	bf00      	nop
   804b4:	00080337 	.word	0x00080337
   804b8:	00080373 	.word	0x00080373
   804bc:	0008039f 	.word	0x0008039f

000804c0 <pio_configure_pin_group>:
   804c0:	f002 43f0 	and.w	r3, r2, #2013265920	; 0x78000000
   804c4:	f1b3 5f20 	cmp.w	r3, #671088640	; 0x28000000
   804c8:	b573      	push	{r0, r1, r4, r5, r6, lr}
   804ca:	4605      	mov	r5, r0
   804cc:	460c      	mov	r4, r1
   804ce:	4616      	mov	r6, r2
   804d0:	d01c      	beq.n	8050c <pio_configure_pin_group+0x4c>
   804d2:	d80b      	bhi.n	804ec <pio_configure_pin_group+0x2c>
   804d4:	f1b3 6f00 	cmp.w	r3, #134217728	; 0x8000000
   804d8:	d00f      	beq.n	804fa <pio_configure_pin_group+0x3a>
   804da:	f1b3 5f80 	cmp.w	r3, #268435456	; 0x10000000
   804de:	d129      	bne.n	80534 <pio_configure_pin_group+0x74>
   804e0:	6469      	str	r1, [r5, #68]	; 0x44
   804e2:	6f03      	ldr	r3, [r0, #112]	; 0x70
   804e4:	430b      	orrs	r3, r1
   804e6:	6703      	str	r3, [r0, #112]	; 0x70
   804e8:	6069      	str	r1, [r5, #4]
   804ea:	e00a      	b.n	80502 <pio_configure_pin_group+0x42>
   804ec:	f1b3 5f40 	cmp.w	r3, #805306368	; 0x30000000
   804f0:	d010      	beq.n	80514 <pio_configure_pin_group+0x54>
   804f2:	f1b3 5f60 	cmp.w	r3, #939524096	; 0x38000000
   804f6:	d00d      	beq.n	80514 <pio_configure_pin_group+0x54>
   804f8:	e01c      	b.n	80534 <pio_configure_pin_group+0x74>
   804fa:	4619      	mov	r1, r3
   804fc:	4622      	mov	r2, r4
   804fe:	4b0f      	ldr	r3, [pc, #60]	; (8053c <pio_configure_pin_group+0x7c>)
   80500:	4798      	blx	r3
   80502:	07f2      	lsls	r2, r6, #31
   80504:	bf4c      	ite	mi
   80506:	666c      	strmi	r4, [r5, #100]	; 0x64
   80508:	662c      	strpl	r4, [r5, #96]	; 0x60
   8050a:	e001      	b.n	80510 <pio_configure_pin_group+0x50>
   8050c:	4b0c      	ldr	r3, [pc, #48]	; (80540 <pio_configure_pin_group+0x80>)
   8050e:	4798      	blx	r3
   80510:	2001      	movs	r0, #1
   80512:	e010      	b.n	80536 <pio_configure_pin_group+0x76>
   80514:	f006 5260 	and.w	r2, r6, #939524096	; 0x38000000
   80518:	f006 0301 	and.w	r3, r6, #1
   8051c:	9300      	str	r3, [sp, #0]
   8051e:	f102 4348 	add.w	r3, r2, #3355443200	; 0xc8000000
   80522:	425a      	negs	r2, r3
   80524:	4621      	mov	r1, r4
   80526:	415a      	adcs	r2, r3
   80528:	4628      	mov	r0, r5
   8052a:	f3c6 0380 	ubfx	r3, r6, #2, #1
   8052e:	4c05      	ldr	r4, [pc, #20]	; (80544 <pio_configure_pin_group+0x84>)
   80530:	47a0      	blx	r4
   80532:	e7ed      	b.n	80510 <pio_configure_pin_group+0x50>
   80534:	2000      	movs	r0, #0
   80536:	b002      	add	sp, #8
   80538:	bd70      	pop	{r4, r5, r6, pc}
   8053a:	bf00      	nop
   8053c:	00080337 	.word	0x00080337
   80540:	00080373 	.word	0x00080373
   80544:	0008039f 	.word	0x0008039f

00080548 <pio_handler_process>:
   80548:	b5f8      	push	{r3, r4, r5, r6, r7, lr}
   8054a:	4b13      	ldr	r3, [pc, #76]	; (80598 <pio_handler_process+0x50>)
   8054c:	4604      	mov	r4, r0
   8054e:	460f      	mov	r7, r1
   80550:	4798      	blx	r3
   80552:	4b12      	ldr	r3, [pc, #72]	; (8059c <pio_handler_process+0x54>)
   80554:	4605      	mov	r5, r0
   80556:	4620      	mov	r0, r4
   80558:	4798      	blx	r3
   8055a:	4005      	ands	r5, r0
   8055c:	d01b      	beq.n	80596 <pio_handler_process+0x4e>
   8055e:	4c10      	ldr	r4, [pc, #64]	; (805a0 <pio_handler_process+0x58>)
   80560:	f104 0660 	add.w	r6, r4, #96	; 0x60
   80564:	f854 3c0c 	ldr.w	r3, [r4, #-12]
   80568:	42bb      	cmp	r3, r7
   8056a:	d110      	bne.n	8058e <pio_handler_process+0x46>
   8056c:	f854 1c08 	ldr.w	r1, [r4, #-8]
   80570:	4229      	tst	r1, r5
   80572:	d00c      	beq.n	8058e <pio_handler_process+0x46>
   80574:	6823      	ldr	r3, [r4, #0]
   80576:	4638      	mov	r0, r7
   80578:	4798      	blx	r3
   8057a:	f854 3c08 	ldr.w	r3, [r4, #-8]
   8057e:	42b4      	cmp	r4, r6
   80580:	ea25 0503 	bic.w	r5, r5, r3
   80584:	d007      	beq.n	80596 <pio_handler_process+0x4e>
   80586:	3410      	adds	r4, #16
   80588:	2d00      	cmp	r5, #0
   8058a:	d1eb      	bne.n	80564 <pio_handler_process+0x1c>
   8058c:	bdf8      	pop	{r3, r4, r5, r6, r7, pc}
   8058e:	42b4      	cmp	r4, r6
   80590:	d001      	beq.n	80596 <pio_handler_process+0x4e>
   80592:	3410      	adds	r4, #16
   80594:	e7e6      	b.n	80564 <pio_handler_process+0x1c>
   80596:	bdf8      	pop	{r3, r4, r5, r6, r7, pc}
   80598:	000803f5 	.word	0x000803f5
   8059c:	000803f9 	.word	0x000803f9
   805a0:	20070988 	.word	0x20070988

000805a4 <pio_handler_set>:
   805a4:	b5f8      	push	{r3, r4, r5, r6, r7, lr}
   805a6:	4e0c      	ldr	r6, [pc, #48]	; (805d8 <pio_handler_set+0x34>)
   805a8:	6834      	ldr	r4, [r6, #0]
   805aa:	2c06      	cmp	r4, #6
   805ac:	d812      	bhi.n	805d4 <pio_handler_set+0x30>
   805ae:	f8df e030 	ldr.w	lr, [pc, #48]	; 805e0 <pio_handler_set+0x3c>
   805b2:	0127      	lsls	r7, r4, #4
   805b4:	f84e 1007 	str.w	r1, [lr, r7]
   805b8:	9906      	ldr	r1, [sp, #24]
   805ba:	eb0e 0507 	add.w	r5, lr, r7
   805be:	606a      	str	r2, [r5, #4]
   805c0:	60ab      	str	r3, [r5, #8]
   805c2:	60e9      	str	r1, [r5, #12]
   805c4:	3401      	adds	r4, #1
   805c6:	4611      	mov	r1, r2
   805c8:	461a      	mov	r2, r3
   805ca:	4b04      	ldr	r3, [pc, #16]	; (805dc <pio_handler_set+0x38>)
   805cc:	6034      	str	r4, [r6, #0]
   805ce:	4798      	blx	r3
   805d0:	2000      	movs	r0, #0
   805d2:	bdf8      	pop	{r3, r4, r5, r6, r7, pc}
   805d4:	2001      	movs	r0, #1
   805d6:	bdf8      	pop	{r3, r4, r5, r6, r7, pc}
   805d8:	20070978 	.word	0x20070978
   805dc:	000803c3 	.word	0x000803c3
   805e0:	2007097c 	.word	0x2007097c

000805e4 <PIOA_Handler>:
   805e4:	b508      	push	{r3, lr}
   805e6:	4802      	ldr	r0, [pc, #8]	; (805f0 <PIOA_Handler+0xc>)
   805e8:	210b      	movs	r1, #11
   805ea:	4b02      	ldr	r3, [pc, #8]	; (805f4 <PIOA_Handler+0x10>)
   805ec:	4798      	blx	r3
   805ee:	bd08      	pop	{r3, pc}
   805f0:	400e0e00 	.word	0x400e0e00
   805f4:	00080549 	.word	0x00080549

000805f8 <PIOB_Handler>:
   805f8:	b508      	push	{r3, lr}
   805fa:	4802      	ldr	r0, [pc, #8]	; (80604 <PIOB_Handler+0xc>)
   805fc:	210c      	movs	r1, #12
   805fe:	4b02      	ldr	r3, [pc, #8]	; (80608 <PIOB_Handler+0x10>)
   80600:	4798      	blx	r3
   80602:	bd08      	pop	{r3, pc}
   80604:	400e1000 	.word	0x400e1000
   80608:	00080549 	.word	0x00080549

0008060c <PIOC_Handler>:
   8060c:	b508      	push	{r3, lr}
   8060e:	4802      	ldr	r0, [pc, #8]	; (80618 <PIOC_Handler+0xc>)
   80610:	210d      	movs	r1, #13
   80612:	4b02      	ldr	r3, [pc, #8]	; (8061c <PIOC_Handler+0x10>)
   80614:	4798      	blx	r3
   80616:	bd08      	pop	{r3, pc}
   80618:	400e1200 	.word	0x400e1200
   8061c:	00080549 	.word	0x00080549

00080620 <PIOD_Handler>:
   80620:	b508      	push	{r3, lr}
   80622:	4802      	ldr	r0, [pc, #8]	; (8062c <PIOD_Handler+0xc>)
   80624:	210e      	movs	r1, #14
   80626:	4b02      	ldr	r3, [pc, #8]	; (80630 <PIOD_Handler+0x10>)
   80628:	4798      	blx	r3
   8062a:	bd08      	pop	{r3, pc}
   8062c:	400e1400 	.word	0x400e1400
   80630:	00080549 	.word	0x00080549

00080634 <pio_handler_set_priority>:
   80634:	b5f8      	push	{r3, r4, r5, r6, r7, lr}
   80636:	4b1b      	ldr	r3, [pc, #108]	; (806a4 <pio_handler_set_priority+0x70>)
   80638:	460c      	mov	r4, r1
   8063a:	4606      	mov	r6, r0
   8063c:	4615      	mov	r5, r2
   8063e:	4798      	blx	r3
   80640:	4607      	mov	r7, r0
   80642:	f04f 31ff 	mov.w	r1, #4294967295
   80646:	4630      	mov	r0, r6
   80648:	4b17      	ldr	r3, [pc, #92]	; (806a8 <pio_handler_set_priority+0x74>)
   8064a:	4798      	blx	r3
   8064c:	4630      	mov	r0, r6
   8064e:	4b17      	ldr	r3, [pc, #92]	; (806ac <pio_handler_set_priority+0x78>)
   80650:	4798      	blx	r3
   80652:	b2e0      	uxtb	r0, r4
   80654:	f000 031f 	and.w	r3, r0, #31
   80658:	2101      	movs	r1, #1
   8065a:	4099      	lsls	r1, r3
   8065c:	0963      	lsrs	r3, r4, #5
   8065e:	2c00      	cmp	r4, #0
   80660:	ea4f 0383 	mov.w	r3, r3, lsl #2
   80664:	ea4f 1205 	mov.w	r2, r5, lsl #4
   80668:	bfac      	ite	ge
   8066a:	f104 4460 	addge.w	r4, r4, #3758096384	; 0xe0000000
   8066e:	4c10      	ldrlt	r4, [pc, #64]	; (806b0 <pio_handler_set_priority+0x7c>)
   80670:	f103 4360 	add.w	r3, r3, #3758096384	; 0xe0000000
   80674:	f503 4361 	add.w	r3, r3, #57600	; 0xe100
   80678:	bfb9      	ittee	lt
   8067a:	f000 000f 	andlt.w	r0, r0, #15
   8067e:	b2d2      	uxtblt	r2, r2
   80680:	b2d2      	uxtbge	r2, r2
   80682:	f504 4461 	addge.w	r4, r4, #57600	; 0xe100
   80686:	f8c3 1080 	str.w	r1, [r3, #128]	; 0x80
   8068a:	f8c3 1180 	str.w	r1, [r3, #384]	; 0x180
   8068e:	bfb4      	ite	lt
   80690:	5422      	strblt	r2, [r4, r0]
   80692:	f884 2300 	strbge.w	r2, [r4, #768]	; 0x300
   80696:	4630      	mov	r0, r6
   80698:	6019      	str	r1, [r3, #0]
   8069a:	4639      	mov	r1, r7
   8069c:	4b05      	ldr	r3, [pc, #20]	; (806b4 <pio_handler_set_priority+0x80>)
   8069e:	4798      	blx	r3
   806a0:	bdf8      	pop	{r3, r4, r5, r6, r7, pc}
   806a2:	bf00      	nop
   806a4:	000803f9 	.word	0x000803f9
   806a8:	000803f1 	.word	0x000803f1
   806ac:	000803f5 	.word	0x000803f5
   806b0:	e000ed14 	.word	0xe000ed14
   806b4:	000803eb 	.word	0x000803eb

000806b8 <pmc_switch_mck_to_pllack>:
   806b8:	4b0f      	ldr	r3, [pc, #60]	; (806f8 <pmc_switch_mck_to_pllack+0x40>)
   806ba:	6b1a      	ldr	r2, [r3, #48]	; 0x30
   806bc:	f022 0270 	bic.w	r2, r2, #112	; 0x70
   806c0:	4310      	orrs	r0, r2
   806c2:	f640 0201 	movw	r2, #2049	; 0x801
   806c6:	6318      	str	r0, [r3, #48]	; 0x30
   806c8:	6e98      	ldr	r0, [r3, #104]	; 0x68
   806ca:	490b      	ldr	r1, [pc, #44]	; (806f8 <pmc_switch_mck_to_pllack+0x40>)
   806cc:	0700      	lsls	r0, r0, #28
   806ce:	d403      	bmi.n	806d8 <pmc_switch_mck_to_pllack+0x20>
   806d0:	3a01      	subs	r2, #1
   806d2:	d1f9      	bne.n	806c8 <pmc_switch_mck_to_pllack+0x10>
   806d4:	2001      	movs	r0, #1
   806d6:	4770      	bx	lr
   806d8:	6b0a      	ldr	r2, [r1, #48]	; 0x30
   806da:	f022 0203 	bic.w	r2, r2, #3
   806de:	f042 0202 	orr.w	r2, r2, #2
   806e2:	630a      	str	r2, [r1, #48]	; 0x30
   806e4:	f640 0201 	movw	r2, #2049	; 0x801
   806e8:	6e99      	ldr	r1, [r3, #104]	; 0x68
   806ea:	0709      	lsls	r1, r1, #28
   806ec:	d402      	bmi.n	806f4 <pmc_switch_mck_to_pllack+0x3c>
   806ee:	3a01      	subs	r2, #1
   806f0:	d1fa      	bne.n	806e8 <pmc_switch_mck_to_pllack+0x30>
   806f2:	e7ef      	b.n	806d4 <pmc_switch_mck_to_pllack+0x1c>
   806f4:	2000      	movs	r0, #0
   806f6:	4770      	bx	lr
   806f8:	400e0600 	.word	0x400e0600

000806fc <pmc_switch_mainck_to_xtal>:
   806fc:	4a0f      	ldr	r2, [pc, #60]	; (8073c <pmc_switch_mainck_to_xtal+0x40>)
   806fe:	6a13      	ldr	r3, [r2, #32]
   80700:	b128      	cbz	r0, 8070e <pmc_switch_mainck_to_xtal+0x12>
   80702:	490f      	ldr	r1, [pc, #60]	; (80740 <pmc_switch_mainck_to_xtal+0x44>)
   80704:	4019      	ands	r1, r3
   80706:	4b0f      	ldr	r3, [pc, #60]	; (80744 <pmc_switch_mainck_to_xtal+0x48>)
   80708:	430b      	orrs	r3, r1
   8070a:	6213      	str	r3, [r2, #32]
   8070c:	4770      	bx	lr
   8070e:	f423 135c 	bic.w	r3, r3, #3604480	; 0x370000
   80712:	f023 0303 	bic.w	r3, r3, #3
   80716:	f443 135c 	orr.w	r3, r3, #3604480	; 0x370000
   8071a:	0209      	lsls	r1, r1, #8
   8071c:	f043 0301 	orr.w	r3, r3, #1
   80720:	b289      	uxth	r1, r1
   80722:	430b      	orrs	r3, r1
   80724:	6213      	str	r3, [r2, #32]
   80726:	6e93      	ldr	r3, [r2, #104]	; 0x68
   80728:	4904      	ldr	r1, [pc, #16]	; (8073c <pmc_switch_mainck_to_xtal+0x40>)
   8072a:	07db      	lsls	r3, r3, #31
   8072c:	d5fb      	bpl.n	80726 <pmc_switch_mainck_to_xtal+0x2a>
   8072e:	6a0b      	ldr	r3, [r1, #32]
   80730:	f043 739b 	orr.w	r3, r3, #20316160	; 0x1360000
   80734:	f443 3380 	orr.w	r3, r3, #65536	; 0x10000
   80738:	620b      	str	r3, [r1, #32]
   8073a:	4770      	bx	lr
   8073c:	400e0600 	.word	0x400e0600
   80740:	fec8fffc 	.word	0xfec8fffc
   80744:	01370002 	.word	0x01370002

00080748 <pmc_osc_is_ready_mainck>:
   80748:	4b02      	ldr	r3, [pc, #8]	; (80754 <pmc_osc_is_ready_mainck+0xc>)
   8074a:	6e98      	ldr	r0, [r3, #104]	; 0x68
   8074c:	f400 3080 	and.w	r0, r0, #65536	; 0x10000
   80750:	4770      	bx	lr
   80752:	bf00      	nop
   80754:	400e0600 	.word	0x400e0600

00080758 <pmc_disable_pllack>:
   80758:	4b02      	ldr	r3, [pc, #8]	; (80764 <pmc_disable_pllack+0xc>)
   8075a:	f04f 5200 	mov.w	r2, #536870912	; 0x20000000
   8075e:	629a      	str	r2, [r3, #40]	; 0x28
   80760:	4770      	bx	lr
   80762:	bf00      	nop
   80764:	400e0600 	.word	0x400e0600

00080768 <pmc_is_locked_pllack>:
   80768:	4b02      	ldr	r3, [pc, #8]	; (80774 <pmc_is_locked_pllack+0xc>)
   8076a:	6e98      	ldr	r0, [r3, #104]	; 0x68
   8076c:	f000 0002 	and.w	r0, r0, #2
   80770:	4770      	bx	lr
   80772:	bf00      	nop
   80774:	400e0600 	.word	0x400e0600

00080778 <pmc_enable_periph_clk>:
   80778:	282c      	cmp	r0, #44	; 0x2c
   8077a:	d815      	bhi.n	807a8 <pmc_enable_periph_clk+0x30>
   8077c:	281f      	cmp	r0, #31
   8077e:	4a0c      	ldr	r2, [pc, #48]	; (807b0 <pmc_enable_periph_clk+0x38>)
   80780:	f04f 0301 	mov.w	r3, #1
   80784:	d806      	bhi.n	80794 <pmc_enable_periph_clk+0x1c>
   80786:	6991      	ldr	r1, [r2, #24]
   80788:	4083      	lsls	r3, r0
   8078a:	4019      	ands	r1, r3
   8078c:	4299      	cmp	r1, r3
   8078e:	d00d      	beq.n	807ac <pmc_enable_periph_clk+0x34>
   80790:	6113      	str	r3, [r2, #16]
   80792:	e00b      	b.n	807ac <pmc_enable_periph_clk+0x34>
   80794:	f8d2 1108 	ldr.w	r1, [r2, #264]	; 0x108
   80798:	3820      	subs	r0, #32
   8079a:	4083      	lsls	r3, r0
   8079c:	4019      	ands	r1, r3
   8079e:	4299      	cmp	r1, r3
   807a0:	d004      	beq.n	807ac <pmc_enable_periph_clk+0x34>
   807a2:	f8c2 3100 	str.w	r3, [r2, #256]	; 0x100
   807a6:	e001      	b.n	807ac <pmc_enable_periph_clk+0x34>
   807a8:	2001      	movs	r0, #1
   807aa:	4770      	bx	lr
   807ac:	2000      	movs	r0, #0
   807ae:	4770      	bx	lr
   807b0:	400e0600 	.word	0x400e0600

000807b4 <Dummy_Handler>:
   807b4:	e7fe      	b.n	807b4 <Dummy_Handler>
	...

000807b8 <Reset_Handler>:
   807b8:	b508      	push	{r3, lr}
   807ba:	4a16      	ldr	r2, [pc, #88]	; (80814 <Reset_Handler+0x5c>)
   807bc:	4b16      	ldr	r3, [pc, #88]	; (80818 <Reset_Handler+0x60>)
   807be:	429a      	cmp	r2, r3
   807c0:	d001      	beq.n	807c6 <Reset_Handler+0xe>
   807c2:	3a04      	subs	r2, #4
   807c4:	e001      	b.n	807ca <Reset_Handler+0x12>
   807c6:	4b15      	ldr	r3, [pc, #84]	; (8081c <Reset_Handler+0x64>)
   807c8:	e007      	b.n	807da <Reset_Handler+0x22>
   807ca:	4915      	ldr	r1, [pc, #84]	; (80820 <Reset_Handler+0x68>)
   807cc:	428b      	cmp	r3, r1
   807ce:	d2fa      	bcs.n	807c6 <Reset_Handler+0xe>
   807d0:	f852 1f04 	ldr.w	r1, [r2, #4]!
   807d4:	f843 1b04 	str.w	r1, [r3], #4
   807d8:	e7f7      	b.n	807ca <Reset_Handler+0x12>
   807da:	4a12      	ldr	r2, [pc, #72]	; (80824 <Reset_Handler+0x6c>)
   807dc:	4293      	cmp	r3, r2
   807de:	d203      	bcs.n	807e8 <Reset_Handler+0x30>
   807e0:	2200      	movs	r2, #0
   807e2:	f843 2b04 	str.w	r2, [r3], #4
   807e6:	e7f8      	b.n	807da <Reset_Handler+0x22>
   807e8:	4b0f      	ldr	r3, [pc, #60]	; (80828 <Reset_Handler+0x70>)
   807ea:	4a10      	ldr	r2, [pc, #64]	; (8082c <Reset_Handler+0x74>)
   807ec:	f023 4160 	bic.w	r1, r3, #3758096384	; 0xe0000000
   807f0:	f021 017f 	bic.w	r1, r1, #127	; 0x7f
   807f4:	f103 4360 	add.w	r3, r3, #3758096384	; 0xe0000000
   807f8:	f5b3 1f80 	cmp.w	r3, #1048576	; 0x100000
   807fc:	6091      	str	r1, [r2, #8]
   807fe:	bf3e      	ittt	cc
   80800:	6893      	ldrcc	r3, [r2, #8]
   80802:	f043 5300 	orrcc.w	r3, r3, #536870912	; 0x20000000
   80806:	6093      	strcc	r3, [r2, #8]
   80808:	4b09      	ldr	r3, [pc, #36]	; (80830 <Reset_Handler+0x78>)
   8080a:	4798      	blx	r3
   8080c:	4b09      	ldr	r3, [pc, #36]	; (80834 <Reset_Handler+0x7c>)
   8080e:	4798      	blx	r3
   80810:	e7fe      	b.n	80810 <Reset_Handler+0x58>
   80812:	bf00      	nop
   80814:	00083ba8 	.word	0x00083ba8
   80818:	20070000 	.word	0x20070000
   8081c:	2007095c 	.word	0x2007095c
   80820:	2007095c 	.word	0x2007095c
   80824:	20070a34 	.word	0x20070a34
   80828:	00080000 	.word	0x00080000
   8082c:	e000ed00 	.word	0xe000ed00
   80830:	00080b9d 	.word	0x00080b9d
   80834:	00080ab1 	.word	0x00080ab1

00080838 <SystemCoreClockUpdate>:
   80838:	b510      	push	{r4, lr}
   8083a:	4a2c      	ldr	r2, [pc, #176]	; (808ec <SystemCoreClockUpdate+0xb4>)
   8083c:	6b13      	ldr	r3, [r2, #48]	; 0x30
   8083e:	f003 0303 	and.w	r3, r3, #3
   80842:	2b01      	cmp	r3, #1
   80844:	4b2a      	ldr	r3, [pc, #168]	; (808f0 <SystemCoreClockUpdate+0xb8>)
   80846:	d00d      	beq.n	80864 <SystemCoreClockUpdate+0x2c>
   80848:	d303      	bcc.n	80852 <SystemCoreClockUpdate+0x1a>
   8084a:	6a11      	ldr	r1, [r2, #32]
   8084c:	01cc      	lsls	r4, r1, #7
   8084e:	d51a      	bpl.n	80886 <SystemCoreClockUpdate+0x4e>
   80850:	e025      	b.n	8089e <SystemCoreClockUpdate+0x66>
   80852:	4928      	ldr	r1, [pc, #160]	; (808f4 <SystemCoreClockUpdate+0xbc>)
   80854:	6949      	ldr	r1, [r1, #20]
   80856:	0608      	lsls	r0, r1, #24
   80858:	bf4c      	ite	mi
   8085a:	f44f 4100 	movmi.w	r1, #32768	; 0x8000
   8085e:	f44f 41fa 	movpl.w	r1, #32000	; 0x7d00
   80862:	e030      	b.n	808c6 <SystemCoreClockUpdate+0x8e>
   80864:	6a11      	ldr	r1, [r2, #32]
   80866:	01c9      	lsls	r1, r1, #7
   80868:	d40b      	bmi.n	80882 <SystemCoreClockUpdate+0x4a>
   8086a:	4923      	ldr	r1, [pc, #140]	; (808f8 <SystemCoreClockUpdate+0xc0>)
   8086c:	6019      	str	r1, [r3, #0]
   8086e:	6a11      	ldr	r1, [r2, #32]
   80870:	f001 0170 	and.w	r1, r1, #112	; 0x70
   80874:	2910      	cmp	r1, #16
   80876:	d002      	beq.n	8087e <SystemCoreClockUpdate+0x46>
   80878:	2920      	cmp	r1, #32
   8087a:	d002      	beq.n	80882 <SystemCoreClockUpdate+0x4a>
   8087c:	e024      	b.n	808c8 <SystemCoreClockUpdate+0x90>
   8087e:	491f      	ldr	r1, [pc, #124]	; (808fc <SystemCoreClockUpdate+0xc4>)
   80880:	e021      	b.n	808c6 <SystemCoreClockUpdate+0x8e>
   80882:	491f      	ldr	r1, [pc, #124]	; (80900 <SystemCoreClockUpdate+0xc8>)
   80884:	e01f      	b.n	808c6 <SystemCoreClockUpdate+0x8e>
   80886:	491c      	ldr	r1, [pc, #112]	; (808f8 <SystemCoreClockUpdate+0xc0>)
   80888:	6019      	str	r1, [r3, #0]
   8088a:	6a11      	ldr	r1, [r2, #32]
   8088c:	f001 0170 	and.w	r1, r1, #112	; 0x70
   80890:	2910      	cmp	r1, #16
   80892:	d002      	beq.n	8089a <SystemCoreClockUpdate+0x62>
   80894:	2920      	cmp	r1, #32
   80896:	d002      	beq.n	8089e <SystemCoreClockUpdate+0x66>
   80898:	e003      	b.n	808a2 <SystemCoreClockUpdate+0x6a>
   8089a:	4918      	ldr	r1, [pc, #96]	; (808fc <SystemCoreClockUpdate+0xc4>)
   8089c:	e000      	b.n	808a0 <SystemCoreClockUpdate+0x68>
   8089e:	4918      	ldr	r1, [pc, #96]	; (80900 <SystemCoreClockUpdate+0xc8>)
   808a0:	6019      	str	r1, [r3, #0]
   808a2:	6b11      	ldr	r1, [r2, #48]	; 0x30
   808a4:	4811      	ldr	r0, [pc, #68]	; (808ec <SystemCoreClockUpdate+0xb4>)
   808a6:	f001 0103 	and.w	r1, r1, #3
   808aa:	2902      	cmp	r1, #2
   808ac:	bf01      	itttt	eq
   808ae:	6a81      	ldreq	r1, [r0, #40]	; 0x28
   808b0:	6a80      	ldreq	r0, [r0, #40]	; 0x28
   808b2:	f3c1 440a 	ubfxeq	r4, r1, #16, #11
   808b6:	6819      	ldreq	r1, [r3, #0]
   808b8:	bf03      	ittte	eq
   808ba:	b2c0      	uxtbeq	r0, r0
   808bc:	fb04 1101 	mlaeq	r1, r4, r1, r1
   808c0:	fbb1 f1f0 	udiveq	r1, r1, r0
   808c4:	490f      	ldrne	r1, [pc, #60]	; (80904 <SystemCoreClockUpdate+0xcc>)
   808c6:	6019      	str	r1, [r3, #0]
   808c8:	6b12      	ldr	r2, [r2, #48]	; 0x30
   808ca:	f002 0270 	and.w	r2, r2, #112	; 0x70
   808ce:	2a70      	cmp	r2, #112	; 0x70
   808d0:	bf03      	ittte	eq
   808d2:	681a      	ldreq	r2, [r3, #0]
   808d4:	2103      	moveq	r1, #3
   808d6:	fbb2 f2f1 	udiveq	r2, r2, r1
   808da:	4a04      	ldrne	r2, [pc, #16]	; (808ec <SystemCoreClockUpdate+0xb4>)
   808dc:	bf1f      	itttt	ne
   808de:	6b11      	ldrne	r1, [r2, #48]	; 0x30
   808e0:	681a      	ldrne	r2, [r3, #0]
   808e2:	f3c1 1102 	ubfxne	r1, r1, #4, #3
   808e6:	40ca      	lsrne	r2, r1
   808e8:	601a      	str	r2, [r3, #0]
   808ea:	bd10      	pop	{r4, pc}
   808ec:	400e0600 	.word	0x400e0600
   808f0:	200700ec 	.word	0x200700ec
   808f4:	400e1a10 	.word	0x400e1a10
   808f8:	003d0900 	.word	0x003d0900
   808fc:	007a1200 	.word	0x007a1200
   80900:	00b71b00 	.word	0x00b71b00
   80904:	0e4e1c00 	.word	0x0e4e1c00

00080908 <_sbrk>:
   80908:	4b07      	ldr	r3, [pc, #28]	; (80928 <_sbrk+0x20>)
   8090a:	681a      	ldr	r2, [r3, #0]
   8090c:	b90a      	cbnz	r2, 80912 <_sbrk+0xa>
   8090e:	4a07      	ldr	r2, [pc, #28]	; (8092c <_sbrk+0x24>)
   80910:	601a      	str	r2, [r3, #0]
   80912:	681b      	ldr	r3, [r3, #0]
   80914:	4a06      	ldr	r2, [pc, #24]	; (80930 <_sbrk+0x28>)
   80916:	4418      	add	r0, r3
   80918:	4290      	cmp	r0, r2
   8091a:	bfdd      	ittte	le
   8091c:	4a02      	ldrle	r2, [pc, #8]	; (80928 <_sbrk+0x20>)
   8091e:	6010      	strle	r0, [r2, #0]
   80920:	4618      	movle	r0, r3
   80922:	f04f 30ff 	movgt.w	r0, #4294967295
   80926:	4770      	bx	lr
   80928:	200709ec 	.word	0x200709ec
   8092c:	20072a38 	.word	0x20072a38
   80930:	20087ffc 	.word	0x20087ffc

00080934 <_close>:
   80934:	f04f 30ff 	mov.w	r0, #4294967295
   80938:	4770      	bx	lr

0008093a <_fstat>:
   8093a:	f44f 5300 	mov.w	r3, #8192	; 0x2000
   8093e:	604b      	str	r3, [r1, #4]
   80940:	2000      	movs	r0, #0
   80942:	4770      	bx	lr

00080944 <_isatty>:
   80944:	2001      	movs	r0, #1
   80946:	4770      	bx	lr

00080948 <_lseek>:
   80948:	2000      	movs	r0, #0
   8094a:	4770      	bx	lr

0008094c <Encoder_Handler>:
   8094c:	b5f7      	push	{r0, r1, r2, r4, r5, r6, r7, lr}
   8094e:	460e      	mov	r6, r1
   80950:	490a      	ldr	r1, [pc, #40]	; (8097c <Encoder_Handler+0x30>)
   80952:	4c0b      	ldr	r4, [pc, #44]	; (80980 <Encoder_Handler+0x34>)
   80954:	680b      	ldr	r3, [r1, #0]
   80956:	4607      	mov	r7, r0
   80958:	3301      	adds	r3, #1
   8095a:	600b      	str	r3, [r1, #0]
   8095c:	4620      	mov	r0, r4
   8095e:	4b09      	ldr	r3, [pc, #36]	; (80984 <Encoder_Handler+0x38>)
   80960:	4798      	blx	r3
   80962:	4b09      	ldr	r3, [pc, #36]	; (80988 <Encoder_Handler+0x3c>)
   80964:	4605      	mov	r5, r0
   80966:	4620      	mov	r0, r4
   80968:	4798      	blx	r3
   8096a:	4c08      	ldr	r4, [pc, #32]	; (8098c <Encoder_Handler+0x40>)
   8096c:	9000      	str	r0, [sp, #0]
   8096e:	4639      	mov	r1, r7
   80970:	4632      	mov	r2, r6
   80972:	462b      	mov	r3, r5
   80974:	4806      	ldr	r0, [pc, #24]	; (80990 <Encoder_Handler+0x44>)
   80976:	47a0      	blx	r4
   80978:	b003      	add	sp, #12
   8097a:	bdf0      	pop	{r4, r5, r6, r7, pc}
   8097c:	200700f0 	.word	0x200700f0
   80980:	400e0e00 	.word	0x400e0e00
   80984:	000803f5 	.word	0x000803f5
   80988:	000803f9 	.word	0x000803f9
   8098c:	00080bed 	.word	0x00080bed
   80990:	00083afc 	.word	0x00083afc

00080994 <usart_serial_getchar>:
   80994:	b513      	push	{r0, r1, r4, lr}
   80996:	2300      	movs	r3, #0
   80998:	9301      	str	r3, [sp, #4]
   8099a:	4b1b      	ldr	r3, [pc, #108]	; (80a08 <usart_serial_getchar+0x74>)
   8099c:	460c      	mov	r4, r1
   8099e:	4298      	cmp	r0, r3
   809a0:	d106      	bne.n	809b0 <usart_serial_getchar+0x1c>
   809a2:	4819      	ldr	r0, [pc, #100]	; (80a08 <usart_serial_getchar+0x74>)
   809a4:	4621      	mov	r1, r4
   809a6:	4b19      	ldr	r3, [pc, #100]	; (80a0c <usart_serial_getchar+0x78>)
   809a8:	4798      	blx	r3
   809aa:	2800      	cmp	r0, #0
   809ac:	d1f9      	bne.n	809a2 <usart_serial_getchar+0xe>
   809ae:	e028      	b.n	80a02 <usart_serial_getchar+0x6e>
   809b0:	4b17      	ldr	r3, [pc, #92]	; (80a10 <usart_serial_getchar+0x7c>)
   809b2:	4298      	cmp	r0, r3
   809b4:	d106      	bne.n	809c4 <usart_serial_getchar+0x30>
   809b6:	4816      	ldr	r0, [pc, #88]	; (80a10 <usart_serial_getchar+0x7c>)
   809b8:	a901      	add	r1, sp, #4
   809ba:	4b16      	ldr	r3, [pc, #88]	; (80a14 <usart_serial_getchar+0x80>)
   809bc:	4798      	blx	r3
   809be:	2800      	cmp	r0, #0
   809c0:	d1f9      	bne.n	809b6 <usart_serial_getchar+0x22>
   809c2:	e01c      	b.n	809fe <usart_serial_getchar+0x6a>
   809c4:	4b14      	ldr	r3, [pc, #80]	; (80a18 <usart_serial_getchar+0x84>)
   809c6:	4298      	cmp	r0, r3
   809c8:	d106      	bne.n	809d8 <usart_serial_getchar+0x44>
   809ca:	4813      	ldr	r0, [pc, #76]	; (80a18 <usart_serial_getchar+0x84>)
   809cc:	a901      	add	r1, sp, #4
   809ce:	4b11      	ldr	r3, [pc, #68]	; (80a14 <usart_serial_getchar+0x80>)
   809d0:	4798      	blx	r3
   809d2:	2800      	cmp	r0, #0
   809d4:	d1f9      	bne.n	809ca <usart_serial_getchar+0x36>
   809d6:	e012      	b.n	809fe <usart_serial_getchar+0x6a>
   809d8:	4b10      	ldr	r3, [pc, #64]	; (80a1c <usart_serial_getchar+0x88>)
   809da:	4298      	cmp	r0, r3
   809dc:	d106      	bne.n	809ec <usart_serial_getchar+0x58>
   809de:	480f      	ldr	r0, [pc, #60]	; (80a1c <usart_serial_getchar+0x88>)
   809e0:	a901      	add	r1, sp, #4
   809e2:	4b0c      	ldr	r3, [pc, #48]	; (80a14 <usart_serial_getchar+0x80>)
   809e4:	4798      	blx	r3
   809e6:	2800      	cmp	r0, #0
   809e8:	d1f9      	bne.n	809de <usart_serial_getchar+0x4a>
   809ea:	e008      	b.n	809fe <usart_serial_getchar+0x6a>
   809ec:	4b0c      	ldr	r3, [pc, #48]	; (80a20 <usart_serial_getchar+0x8c>)
   809ee:	4298      	cmp	r0, r3
   809f0:	d107      	bne.n	80a02 <usart_serial_getchar+0x6e>
   809f2:	480b      	ldr	r0, [pc, #44]	; (80a20 <usart_serial_getchar+0x8c>)
   809f4:	a901      	add	r1, sp, #4
   809f6:	4b07      	ldr	r3, [pc, #28]	; (80a14 <usart_serial_getchar+0x80>)
   809f8:	4798      	blx	r3
   809fa:	2800      	cmp	r0, #0
   809fc:	d1f9      	bne.n	809f2 <usart_serial_getchar+0x5e>
   809fe:	9b01      	ldr	r3, [sp, #4]
   80a00:	7023      	strb	r3, [r4, #0]
   80a02:	b002      	add	sp, #8
   80a04:	bd10      	pop	{r4, pc}
   80a06:	bf00      	nop
   80a08:	400e0800 	.word	0x400e0800
   80a0c:	00080229 	.word	0x00080229
   80a10:	40098000 	.word	0x40098000
   80a14:	00080197 	.word	0x00080197
   80a18:	4009c000 	.word	0x4009c000
   80a1c:	400a0000 	.word	0x400a0000
   80a20:	400a4000 	.word	0x400a4000

00080a24 <usart_serial_putchar>:
   80a24:	4b1b      	ldr	r3, [pc, #108]	; (80a94 <usart_serial_putchar+0x70>)
   80a26:	b510      	push	{r4, lr}
   80a28:	4298      	cmp	r0, r3
   80a2a:	460c      	mov	r4, r1
   80a2c:	d107      	bne.n	80a3e <usart_serial_putchar+0x1a>
   80a2e:	4819      	ldr	r0, [pc, #100]	; (80a94 <usart_serial_putchar+0x70>)
   80a30:	4621      	mov	r1, r4
   80a32:	4b19      	ldr	r3, [pc, #100]	; (80a98 <usart_serial_putchar+0x74>)
   80a34:	4798      	blx	r3
   80a36:	2800      	cmp	r0, #0
   80a38:	d1f9      	bne.n	80a2e <usart_serial_putchar+0xa>
   80a3a:	2001      	movs	r0, #1
   80a3c:	bd10      	pop	{r4, pc}
   80a3e:	4b17      	ldr	r3, [pc, #92]	; (80a9c <usart_serial_putchar+0x78>)
   80a40:	4298      	cmp	r0, r3
   80a42:	d106      	bne.n	80a52 <usart_serial_putchar+0x2e>
   80a44:	4815      	ldr	r0, [pc, #84]	; (80a9c <usart_serial_putchar+0x78>)
   80a46:	4621      	mov	r1, r4
   80a48:	4b15      	ldr	r3, [pc, #84]	; (80aa0 <usart_serial_putchar+0x7c>)
   80a4a:	4798      	blx	r3
   80a4c:	2800      	cmp	r0, #0
   80a4e:	d1f9      	bne.n	80a44 <usart_serial_putchar+0x20>
   80a50:	e7f3      	b.n	80a3a <usart_serial_putchar+0x16>
   80a52:	4b14      	ldr	r3, [pc, #80]	; (80aa4 <usart_serial_putchar+0x80>)
   80a54:	4298      	cmp	r0, r3
   80a56:	d106      	bne.n	80a66 <usart_serial_putchar+0x42>
   80a58:	4812      	ldr	r0, [pc, #72]	; (80aa4 <usart_serial_putchar+0x80>)
   80a5a:	4621      	mov	r1, r4
   80a5c:	4b10      	ldr	r3, [pc, #64]	; (80aa0 <usart_serial_putchar+0x7c>)
   80a5e:	4798      	blx	r3
   80a60:	2800      	cmp	r0, #0
   80a62:	d1f9      	bne.n	80a58 <usart_serial_putchar+0x34>
   80a64:	e7e9      	b.n	80a3a <usart_serial_putchar+0x16>
   80a66:	4b10      	ldr	r3, [pc, #64]	; (80aa8 <usart_serial_putchar+0x84>)
   80a68:	4298      	cmp	r0, r3
   80a6a:	d106      	bne.n	80a7a <usart_serial_putchar+0x56>
   80a6c:	480e      	ldr	r0, [pc, #56]	; (80aa8 <usart_serial_putchar+0x84>)
   80a6e:	4621      	mov	r1, r4
   80a70:	4b0b      	ldr	r3, [pc, #44]	; (80aa0 <usart_serial_putchar+0x7c>)
   80a72:	4798      	blx	r3
   80a74:	2800      	cmp	r0, #0
   80a76:	d1f9      	bne.n	80a6c <usart_serial_putchar+0x48>
   80a78:	e7df      	b.n	80a3a <usart_serial_putchar+0x16>
   80a7a:	4b0c      	ldr	r3, [pc, #48]	; (80aac <usart_serial_putchar+0x88>)
   80a7c:	4298      	cmp	r0, r3
   80a7e:	d106      	bne.n	80a8e <usart_serial_putchar+0x6a>
   80a80:	480a      	ldr	r0, [pc, #40]	; (80aac <usart_serial_putchar+0x88>)
   80a82:	4621      	mov	r1, r4
   80a84:	4b06      	ldr	r3, [pc, #24]	; (80aa0 <usart_serial_putchar+0x7c>)
   80a86:	4798      	blx	r3
   80a88:	2800      	cmp	r0, #0
   80a8a:	d1f9      	bne.n	80a80 <usart_serial_putchar+0x5c>
   80a8c:	e7d5      	b.n	80a3a <usart_serial_putchar+0x16>
   80a8e:	2000      	movs	r0, #0
   80a90:	bd10      	pop	{r4, pc}
   80a92:	bf00      	nop
   80a94:	400e0800 	.word	0x400e0800
   80a98:	0008021b 	.word	0x0008021b
   80a9c:	40098000 	.word	0x40098000
   80aa0:	00080185 	.word	0x00080185
   80aa4:	4009c000 	.word	0x4009c000
   80aa8:	400a0000 	.word	0x400a0000
   80aac:	400a4000 	.word	0x400a4000

00080ab0 <main>:
   80ab0:	b5f0      	push	{r4, r5, r6, r7, lr}
   80ab2:	4b25      	ldr	r3, [pc, #148]	; (80b48 <main+0x98>)
   80ab4:	b087      	sub	sp, #28
   80ab6:	4798      	blx	r3
   80ab8:	4b24      	ldr	r3, [pc, #144]	; (80b4c <main+0x9c>)
   80aba:	4798      	blx	r3
   80abc:	4e24      	ldr	r6, [pc, #144]	; (80b50 <main+0xa0>)
   80abe:	4b25      	ldr	r3, [pc, #148]	; (80b54 <main+0xa4>)
   80ac0:	4a25      	ldr	r2, [pc, #148]	; (80b58 <main+0xa8>)
   80ac2:	601e      	str	r6, [r3, #0]
   80ac4:	4b25      	ldr	r3, [pc, #148]	; (80b5c <main+0xac>)
   80ac6:	4d26      	ldr	r5, [pc, #152]	; (80b60 <main+0xb0>)
   80ac8:	601a      	str	r2, [r3, #0]
   80aca:	4a26      	ldr	r2, [pc, #152]	; (80b64 <main+0xb4>)
   80acc:	4b26      	ldr	r3, [pc, #152]	; (80b68 <main+0xb8>)
   80ace:	f44f 6400 	mov.w	r4, #2048	; 0x800
   80ad2:	601a      	str	r2, [r3, #0]
   80ad4:	4b25      	ldr	r3, [pc, #148]	; (80b6c <main+0xbc>)
   80ad6:	4f26      	ldr	r7, [pc, #152]	; (80b70 <main+0xc0>)
   80ad8:	9303      	str	r3, [sp, #12]
   80ada:	2008      	movs	r0, #8
   80adc:	f44f 33e1 	mov.w	r3, #115200	; 0x1c200
   80ae0:	9304      	str	r3, [sp, #16]
   80ae2:	9405      	str	r4, [sp, #20]
   80ae4:	47a8      	blx	r5
   80ae6:	4630      	mov	r0, r6
   80ae8:	a903      	add	r1, sp, #12
   80aea:	4b22      	ldr	r3, [pc, #136]	; (80b74 <main+0xc4>)
   80aec:	4798      	blx	r3
   80aee:	683b      	ldr	r3, [r7, #0]
   80af0:	2100      	movs	r1, #0
   80af2:	6898      	ldr	r0, [r3, #8]
   80af4:	4e20      	ldr	r6, [pc, #128]	; (80b78 <main+0xc8>)
   80af6:	47b0      	blx	r6
   80af8:	683b      	ldr	r3, [r7, #0]
   80afa:	2100      	movs	r1, #0
   80afc:	6858      	ldr	r0, [r3, #4]
   80afe:	47b0      	blx	r6
   80b00:	200b      	movs	r0, #11
   80b02:	47a8      	blx	r5
   80b04:	481d      	ldr	r0, [pc, #116]	; (80b7c <main+0xcc>)
   80b06:	f44f 3180 	mov.w	r1, #65536	; 0x10000
   80b0a:	2201      	movs	r2, #1
   80b0c:	4b1c      	ldr	r3, [pc, #112]	; (80b80 <main+0xd0>)
   80b0e:	4798      	blx	r3
   80b10:	481a      	ldr	r0, [pc, #104]	; (80b7c <main+0xcc>)
   80b12:	f44f 3180 	mov.w	r1, #65536	; 0x10000
   80b16:	220a      	movs	r2, #10
   80b18:	4b1a      	ldr	r3, [pc, #104]	; (80b84 <main+0xd4>)
   80b1a:	4798      	blx	r3
   80b1c:	4b1a      	ldr	r3, [pc, #104]	; (80b88 <main+0xd8>)
   80b1e:	210b      	movs	r1, #11
   80b20:	9300      	str	r3, [sp, #0]
   80b22:	f44f 3280 	mov.w	r2, #65536	; 0x10000
   80b26:	2340      	movs	r3, #64	; 0x40
   80b28:	4814      	ldr	r0, [pc, #80]	; (80b7c <main+0xcc>)
   80b2a:	4d18      	ldr	r5, [pc, #96]	; (80b8c <main+0xdc>)
   80b2c:	47a8      	blx	r5
   80b2e:	4b18      	ldr	r3, [pc, #96]	; (80b90 <main+0xe0>)
   80b30:	4812      	ldr	r0, [pc, #72]	; (80b7c <main+0xcc>)
   80b32:	601c      	str	r4, [r3, #0]
   80b34:	210b      	movs	r1, #11
   80b36:	4b17      	ldr	r3, [pc, #92]	; (80b94 <main+0xe4>)
   80b38:	2200      	movs	r2, #0
   80b3a:	4798      	blx	r3
   80b3c:	480f      	ldr	r0, [pc, #60]	; (80b7c <main+0xcc>)
   80b3e:	f44f 3180 	mov.w	r1, #65536	; 0x10000
   80b42:	4b15      	ldr	r3, [pc, #84]	; (80b98 <main+0xe8>)
   80b44:	4798      	blx	r3
   80b46:	e7fe      	b.n	80b46 <main+0x96>
   80b48:	00080239 	.word	0x00080239
   80b4c:	0008029d 	.word	0x0008029d
   80b50:	400e0800 	.word	0x400e0800
   80b54:	20070a2c 	.word	0x20070a2c
   80b58:	00080a25 	.word	0x00080a25
   80b5c:	20070a28 	.word	0x20070a28
   80b60:	00080779 	.word	0x00080779
   80b64:	00080995 	.word	0x00080995
   80b68:	20070a24 	.word	0x20070a24
   80b6c:	0501bd00 	.word	0x0501bd00
   80b70:	20070520 	.word	0x20070520
   80b74:	000801e5 	.word	0x000801e5
   80b78:	00080cb1 	.word	0x00080cb1
   80b7c:	400e0e00 	.word	0x400e0e00
   80b80:	00080373 	.word	0x00080373
   80b84:	0008031d 	.word	0x0008031d
   80b88:	0008094d 	.word	0x0008094d
   80b8c:	000805a5 	.word	0x000805a5
   80b90:	e000e100 	.word	0xe000e100
   80b94:	00080635 	.word	0x00080635
   80b98:	000803eb 	.word	0x000803eb

00080b9c <__libc_init_array>:
   80b9c:	b570      	push	{r4, r5, r6, lr}
   80b9e:	4e0f      	ldr	r6, [pc, #60]	; (80bdc <__libc_init_array+0x40>)
   80ba0:	4d0f      	ldr	r5, [pc, #60]	; (80be0 <__libc_init_array+0x44>)
   80ba2:	1b76      	subs	r6, r6, r5
   80ba4:	10b6      	asrs	r6, r6, #2
   80ba6:	bf18      	it	ne
   80ba8:	2400      	movne	r4, #0
   80baa:	d005      	beq.n	80bb8 <__libc_init_array+0x1c>
   80bac:	3401      	adds	r4, #1
   80bae:	f855 3b04 	ldr.w	r3, [r5], #4
   80bb2:	4798      	blx	r3
   80bb4:	42a6      	cmp	r6, r4
   80bb6:	d1f9      	bne.n	80bac <__libc_init_array+0x10>
   80bb8:	4e0a      	ldr	r6, [pc, #40]	; (80be4 <__libc_init_array+0x48>)
   80bba:	4d0b      	ldr	r5, [pc, #44]	; (80be8 <__libc_init_array+0x4c>)
   80bbc:	f002 ffde 	bl	83b7c <_init>
   80bc0:	1b76      	subs	r6, r6, r5
   80bc2:	10b6      	asrs	r6, r6, #2
   80bc4:	bf18      	it	ne
   80bc6:	2400      	movne	r4, #0
   80bc8:	d006      	beq.n	80bd8 <__libc_init_array+0x3c>
   80bca:	3401      	adds	r4, #1
   80bcc:	f855 3b04 	ldr.w	r3, [r5], #4
   80bd0:	4798      	blx	r3
   80bd2:	42a6      	cmp	r6, r4
   80bd4:	d1f9      	bne.n	80bca <__libc_init_array+0x2e>
   80bd6:	bd70      	pop	{r4, r5, r6, pc}
   80bd8:	bd70      	pop	{r4, r5, r6, pc}
   80bda:	bf00      	nop
   80bdc:	00083b88 	.word	0x00083b88
   80be0:	00083b88 	.word	0x00083b88
   80be4:	00083b90 	.word	0x00083b90
   80be8:	00083b88 	.word	0x00083b88

00080bec <iprintf>:
   80bec:	b40f      	push	{r0, r1, r2, r3}
   80bee:	b510      	push	{r4, lr}
   80bf0:	4b07      	ldr	r3, [pc, #28]	; (80c10 <iprintf+0x24>)
   80bf2:	b082      	sub	sp, #8
   80bf4:	ac04      	add	r4, sp, #16
   80bf6:	f854 2b04 	ldr.w	r2, [r4], #4
   80bfa:	6818      	ldr	r0, [r3, #0]
   80bfc:	4623      	mov	r3, r4
   80bfe:	6881      	ldr	r1, [r0, #8]
   80c00:	9401      	str	r4, [sp, #4]
   80c02:	f000 f915 	bl	80e30 <_vfiprintf_r>
   80c06:	b002      	add	sp, #8
   80c08:	e8bd 4010 	ldmia.w	sp!, {r4, lr}
   80c0c:	b004      	add	sp, #16
   80c0e:	4770      	bx	lr
   80c10:	20070520 	.word	0x20070520

00080c14 <memset>:
   80c14:	b470      	push	{r4, r5, r6}
   80c16:	0784      	lsls	r4, r0, #30
   80c18:	d046      	beq.n	80ca8 <memset+0x94>
   80c1a:	1e54      	subs	r4, r2, #1
   80c1c:	2a00      	cmp	r2, #0
   80c1e:	d041      	beq.n	80ca4 <memset+0x90>
   80c20:	b2cd      	uxtb	r5, r1
   80c22:	4603      	mov	r3, r0
   80c24:	e002      	b.n	80c2c <memset+0x18>
   80c26:	1e62      	subs	r2, r4, #1
   80c28:	b3e4      	cbz	r4, 80ca4 <memset+0x90>
   80c2a:	4614      	mov	r4, r2
   80c2c:	f803 5b01 	strb.w	r5, [r3], #1
   80c30:	079a      	lsls	r2, r3, #30
   80c32:	d1f8      	bne.n	80c26 <memset+0x12>
   80c34:	2c03      	cmp	r4, #3
   80c36:	d92e      	bls.n	80c96 <memset+0x82>
   80c38:	b2cd      	uxtb	r5, r1
   80c3a:	ea45 2505 	orr.w	r5, r5, r5, lsl #8
   80c3e:	2c0f      	cmp	r4, #15
   80c40:	ea45 4505 	orr.w	r5, r5, r5, lsl #16
   80c44:	d919      	bls.n	80c7a <memset+0x66>
   80c46:	4626      	mov	r6, r4
   80c48:	f103 0210 	add.w	r2, r3, #16
   80c4c:	3e10      	subs	r6, #16
   80c4e:	2e0f      	cmp	r6, #15
   80c50:	f842 5c10 	str.w	r5, [r2, #-16]
   80c54:	f842 5c0c 	str.w	r5, [r2, #-12]
   80c58:	f842 5c08 	str.w	r5, [r2, #-8]
   80c5c:	f842 5c04 	str.w	r5, [r2, #-4]
   80c60:	f102 0210 	add.w	r2, r2, #16
   80c64:	d8f2      	bhi.n	80c4c <memset+0x38>
   80c66:	f1a4 0210 	sub.w	r2, r4, #16
   80c6a:	f022 020f 	bic.w	r2, r2, #15
   80c6e:	f004 040f 	and.w	r4, r4, #15
   80c72:	3210      	adds	r2, #16
   80c74:	2c03      	cmp	r4, #3
   80c76:	4413      	add	r3, r2
   80c78:	d90d      	bls.n	80c96 <memset+0x82>
   80c7a:	461e      	mov	r6, r3
   80c7c:	4622      	mov	r2, r4
   80c7e:	3a04      	subs	r2, #4
   80c80:	2a03      	cmp	r2, #3
   80c82:	f846 5b04 	str.w	r5, [r6], #4
   80c86:	d8fa      	bhi.n	80c7e <memset+0x6a>
   80c88:	1f22      	subs	r2, r4, #4
   80c8a:	f022 0203 	bic.w	r2, r2, #3
   80c8e:	3204      	adds	r2, #4
   80c90:	4413      	add	r3, r2
   80c92:	f004 0403 	and.w	r4, r4, #3
   80c96:	b12c      	cbz	r4, 80ca4 <memset+0x90>
   80c98:	b2c9      	uxtb	r1, r1
   80c9a:	441c      	add	r4, r3
   80c9c:	f803 1b01 	strb.w	r1, [r3], #1
   80ca0:	42a3      	cmp	r3, r4
   80ca2:	d1fb      	bne.n	80c9c <memset+0x88>
   80ca4:	bc70      	pop	{r4, r5, r6}
   80ca6:	4770      	bx	lr
   80ca8:	4614      	mov	r4, r2
   80caa:	4603      	mov	r3, r0
   80cac:	e7c2      	b.n	80c34 <memset+0x20>
   80cae:	bf00      	nop

00080cb0 <setbuf>:
   80cb0:	2900      	cmp	r1, #0
   80cb2:	bf0c      	ite	eq
   80cb4:	2202      	moveq	r2, #2
   80cb6:	2200      	movne	r2, #0
   80cb8:	f44f 6380 	mov.w	r3, #1024	; 0x400
   80cbc:	f000 b800 	b.w	80cc0 <setvbuf>

00080cc0 <setvbuf>:
   80cc0:	e92d 41f0 	stmdb	sp!, {r4, r5, r6, r7, r8, lr}
   80cc4:	4d3a      	ldr	r5, [pc, #232]	; (80db0 <setvbuf+0xf0>)
   80cc6:	4604      	mov	r4, r0
   80cc8:	682e      	ldr	r6, [r5, #0]
   80cca:	4690      	mov	r8, r2
   80ccc:	460d      	mov	r5, r1
   80cce:	461f      	mov	r7, r3
   80cd0:	b116      	cbz	r6, 80cd8 <setvbuf+0x18>
   80cd2:	6bb3      	ldr	r3, [r6, #56]	; 0x38
   80cd4:	2b00      	cmp	r3, #0
   80cd6:	d03c      	beq.n	80d52 <setvbuf+0x92>
   80cd8:	f1b8 0f02 	cmp.w	r8, #2
   80cdc:	d82f      	bhi.n	80d3e <setvbuf+0x7e>
   80cde:	2f00      	cmp	r7, #0
   80ce0:	db2d      	blt.n	80d3e <setvbuf+0x7e>
   80ce2:	4621      	mov	r1, r4
   80ce4:	4630      	mov	r0, r6
   80ce6:	f000 ffff 	bl	81ce8 <_fflush_r>
   80cea:	89a1      	ldrh	r1, [r4, #12]
   80cec:	2300      	movs	r3, #0
   80cee:	6063      	str	r3, [r4, #4]
   80cf0:	61a3      	str	r3, [r4, #24]
   80cf2:	060b      	lsls	r3, r1, #24
   80cf4:	d427      	bmi.n	80d46 <setvbuf+0x86>
   80cf6:	f021 0183 	bic.w	r1, r1, #131	; 0x83
   80cfa:	b289      	uxth	r1, r1
   80cfc:	f1b8 0f02 	cmp.w	r8, #2
   80d00:	81a1      	strh	r1, [r4, #12]
   80d02:	d02a      	beq.n	80d5a <setvbuf+0x9a>
   80d04:	2d00      	cmp	r5, #0
   80d06:	d036      	beq.n	80d76 <setvbuf+0xb6>
   80d08:	f1b8 0f01 	cmp.w	r8, #1
   80d0c:	d011      	beq.n	80d32 <setvbuf+0x72>
   80d0e:	b289      	uxth	r1, r1
   80d10:	f001 0008 	and.w	r0, r1, #8
   80d14:	4b27      	ldr	r3, [pc, #156]	; (80db4 <setvbuf+0xf4>)
   80d16:	b280      	uxth	r0, r0
   80d18:	63f3      	str	r3, [r6, #60]	; 0x3c
   80d1a:	6025      	str	r5, [r4, #0]
   80d1c:	6125      	str	r5, [r4, #16]
   80d1e:	6167      	str	r7, [r4, #20]
   80d20:	b178      	cbz	r0, 80d42 <setvbuf+0x82>
   80d22:	f011 0f03 	tst.w	r1, #3
   80d26:	bf18      	it	ne
   80d28:	2700      	movne	r7, #0
   80d2a:	2000      	movs	r0, #0
   80d2c:	60a7      	str	r7, [r4, #8]
   80d2e:	e8bd 81f0 	ldmia.w	sp!, {r4, r5, r6, r7, r8, pc}
   80d32:	f041 0101 	orr.w	r1, r1, #1
   80d36:	427b      	negs	r3, r7
   80d38:	81a1      	strh	r1, [r4, #12]
   80d3a:	61a3      	str	r3, [r4, #24]
   80d3c:	e7e7      	b.n	80d0e <setvbuf+0x4e>
   80d3e:	f04f 30ff 	mov.w	r0, #4294967295
   80d42:	e8bd 81f0 	ldmia.w	sp!, {r4, r5, r6, r7, r8, pc}
   80d46:	6921      	ldr	r1, [r4, #16]
   80d48:	4630      	mov	r0, r6
   80d4a:	f001 f939 	bl	81fc0 <_free_r>
   80d4e:	89a1      	ldrh	r1, [r4, #12]
   80d50:	e7d1      	b.n	80cf6 <setvbuf+0x36>
   80d52:	4630      	mov	r0, r6
   80d54:	f001 f85c 	bl	81e10 <__sinit>
   80d58:	e7be      	b.n	80cd8 <setvbuf+0x18>
   80d5a:	2000      	movs	r0, #0
   80d5c:	f104 0343 	add.w	r3, r4, #67	; 0x43
   80d60:	f041 0102 	orr.w	r1, r1, #2
   80d64:	2500      	movs	r5, #0
   80d66:	2201      	movs	r2, #1
   80d68:	81a1      	strh	r1, [r4, #12]
   80d6a:	60a5      	str	r5, [r4, #8]
   80d6c:	6023      	str	r3, [r4, #0]
   80d6e:	6123      	str	r3, [r4, #16]
   80d70:	6162      	str	r2, [r4, #20]
   80d72:	e8bd 81f0 	ldmia.w	sp!, {r4, r5, r6, r7, r8, pc}
   80d76:	2f00      	cmp	r7, #0
   80d78:	bf08      	it	eq
   80d7a:	f44f 6780 	moveq.w	r7, #1024	; 0x400
   80d7e:	4638      	mov	r0, r7
   80d80:	f001 fc28 	bl	825d4 <malloc>
   80d84:	4605      	mov	r5, r0
   80d86:	b128      	cbz	r0, 80d94 <setvbuf+0xd4>
   80d88:	89a1      	ldrh	r1, [r4, #12]
   80d8a:	f041 0180 	orr.w	r1, r1, #128	; 0x80
   80d8e:	b289      	uxth	r1, r1
   80d90:	81a1      	strh	r1, [r4, #12]
   80d92:	e7b9      	b.n	80d08 <setvbuf+0x48>
   80d94:	f44f 6080 	mov.w	r0, #1024	; 0x400
   80d98:	f001 fc1c 	bl	825d4 <malloc>
   80d9c:	4605      	mov	r5, r0
   80d9e:	b918      	cbnz	r0, 80da8 <setvbuf+0xe8>
   80da0:	89a1      	ldrh	r1, [r4, #12]
   80da2:	f04f 30ff 	mov.w	r0, #4294967295
   80da6:	e7d9      	b.n	80d5c <setvbuf+0x9c>
   80da8:	f44f 6780 	mov.w	r7, #1024	; 0x400
   80dac:	e7ec      	b.n	80d88 <setvbuf+0xc8>
   80dae:	bf00      	nop
   80db0:	20070520 	.word	0x20070520
   80db4:	00081d15 	.word	0x00081d15

00080db8 <__sprint_r.part.0>:
   80db8:	6e4b      	ldr	r3, [r1, #100]	; 0x64
   80dba:	e92d 47f0 	stmdb	sp!, {r4, r5, r6, r7, r8, r9, sl, lr}
   80dbe:	049c      	lsls	r4, r3, #18
   80dc0:	460f      	mov	r7, r1
   80dc2:	4692      	mov	sl, r2
   80dc4:	d52b      	bpl.n	80e1e <__sprint_r.part.0+0x66>
   80dc6:	6893      	ldr	r3, [r2, #8]
   80dc8:	6812      	ldr	r2, [r2, #0]
   80dca:	b333      	cbz	r3, 80e1a <__sprint_r.part.0+0x62>
   80dcc:	4680      	mov	r8, r0
   80dce:	f102 0908 	add.w	r9, r2, #8
   80dd2:	e919 0060 	ldmdb	r9, {r5, r6}
   80dd6:	08b6      	lsrs	r6, r6, #2
   80dd8:	d017      	beq.n	80e0a <__sprint_r.part.0+0x52>
   80dda:	3d04      	subs	r5, #4
   80ddc:	2400      	movs	r4, #0
   80dde:	e001      	b.n	80de4 <__sprint_r.part.0+0x2c>
   80de0:	42a6      	cmp	r6, r4
   80de2:	d010      	beq.n	80e06 <__sprint_r.part.0+0x4e>
   80de4:	4640      	mov	r0, r8
   80de6:	f855 1f04 	ldr.w	r1, [r5, #4]!
   80dea:	463a      	mov	r2, r7
   80dec:	f001 f888 	bl	81f00 <_fputwc_r>
   80df0:	1c43      	adds	r3, r0, #1
   80df2:	f104 0401 	add.w	r4, r4, #1
   80df6:	d1f3      	bne.n	80de0 <__sprint_r.part.0+0x28>
   80df8:	2300      	movs	r3, #0
   80dfa:	f8ca 3008 	str.w	r3, [sl, #8]
   80dfe:	f8ca 3004 	str.w	r3, [sl, #4]
   80e02:	e8bd 87f0 	ldmia.w	sp!, {r4, r5, r6, r7, r8, r9, sl, pc}
   80e06:	f8da 3008 	ldr.w	r3, [sl, #8]
   80e0a:	eba3 0386 	sub.w	r3, r3, r6, lsl #2
   80e0e:	f8ca 3008 	str.w	r3, [sl, #8]
   80e12:	f109 0908 	add.w	r9, r9, #8
   80e16:	2b00      	cmp	r3, #0
   80e18:	d1db      	bne.n	80dd2 <__sprint_r.part.0+0x1a>
   80e1a:	2000      	movs	r0, #0
   80e1c:	e7ec      	b.n	80df8 <__sprint_r.part.0+0x40>
   80e1e:	f001 f9a7 	bl	82170 <__sfvwrite_r>
   80e22:	2300      	movs	r3, #0
   80e24:	f8ca 3008 	str.w	r3, [sl, #8]
   80e28:	f8ca 3004 	str.w	r3, [sl, #4]
   80e2c:	e8bd 87f0 	ldmia.w	sp!, {r4, r5, r6, r7, r8, r9, sl, pc}

00080e30 <_vfiprintf_r>:
   80e30:	e92d 4ff0 	stmdb	sp!, {r4, r5, r6, r7, r8, r9, sl, fp, lr}
   80e34:	b0ab      	sub	sp, #172	; 0xac
   80e36:	461c      	mov	r4, r3
   80e38:	9100      	str	r1, [sp, #0]
   80e3a:	4693      	mov	fp, r2
   80e3c:	9304      	str	r3, [sp, #16]
   80e3e:	9001      	str	r0, [sp, #4]
   80e40:	b118      	cbz	r0, 80e4a <_vfiprintf_r+0x1a>
   80e42:	6b83      	ldr	r3, [r0, #56]	; 0x38
   80e44:	2b00      	cmp	r3, #0
   80e46:	f000 80e3 	beq.w	81010 <_vfiprintf_r+0x1e0>
   80e4a:	9b00      	ldr	r3, [sp, #0]
   80e4c:	8999      	ldrh	r1, [r3, #12]
   80e4e:	b28a      	uxth	r2, r1
   80e50:	0490      	lsls	r0, r2, #18
   80e52:	d408      	bmi.n	80e66 <_vfiprintf_r+0x36>
   80e54:	4618      	mov	r0, r3
   80e56:	6e5b      	ldr	r3, [r3, #100]	; 0x64
   80e58:	f441 5200 	orr.w	r2, r1, #8192	; 0x2000
   80e5c:	f423 5300 	bic.w	r3, r3, #8192	; 0x2000
   80e60:	8182      	strh	r2, [r0, #12]
   80e62:	6643      	str	r3, [r0, #100]	; 0x64
   80e64:	b292      	uxth	r2, r2
   80e66:	0711      	lsls	r1, r2, #28
   80e68:	f140 80b2 	bpl.w	80fd0 <_vfiprintf_r+0x1a0>
   80e6c:	9b00      	ldr	r3, [sp, #0]
   80e6e:	691b      	ldr	r3, [r3, #16]
   80e70:	2b00      	cmp	r3, #0
   80e72:	f000 80ad 	beq.w	80fd0 <_vfiprintf_r+0x1a0>
   80e76:	f002 021a 	and.w	r2, r2, #26
   80e7a:	2a0a      	cmp	r2, #10
   80e7c:	f000 80b4 	beq.w	80fe8 <_vfiprintf_r+0x1b8>
   80e80:	f10d 0a68 	add.w	sl, sp, #104	; 0x68
   80e84:	4654      	mov	r4, sl
   80e86:	2300      	movs	r3, #0
   80e88:	9309      	str	r3, [sp, #36]	; 0x24
   80e8a:	9302      	str	r3, [sp, #8]
   80e8c:	930f      	str	r3, [sp, #60]	; 0x3c
   80e8e:	930e      	str	r3, [sp, #56]	; 0x38
   80e90:	f8cd a034 	str.w	sl, [sp, #52]	; 0x34
   80e94:	f89b 3000 	ldrb.w	r3, [fp]
   80e98:	2b00      	cmp	r3, #0
   80e9a:	f000 84a3 	beq.w	817e4 <_vfiprintf_r+0x9b4>
   80e9e:	2b25      	cmp	r3, #37	; 0x25
   80ea0:	f000 84a0 	beq.w	817e4 <_vfiprintf_r+0x9b4>
   80ea4:	465a      	mov	r2, fp
   80ea6:	e001      	b.n	80eac <_vfiprintf_r+0x7c>
   80ea8:	2b25      	cmp	r3, #37	; 0x25
   80eaa:	d003      	beq.n	80eb4 <_vfiprintf_r+0x84>
   80eac:	f812 3f01 	ldrb.w	r3, [r2, #1]!
   80eb0:	2b00      	cmp	r3, #0
   80eb2:	d1f9      	bne.n	80ea8 <_vfiprintf_r+0x78>
   80eb4:	ebcb 0602 	rsb	r6, fp, r2
   80eb8:	4615      	mov	r5, r2
   80eba:	b196      	cbz	r6, 80ee2 <_vfiprintf_r+0xb2>
   80ebc:	9b0e      	ldr	r3, [sp, #56]	; 0x38
   80ebe:	9a0f      	ldr	r2, [sp, #60]	; 0x3c
   80ec0:	3301      	adds	r3, #1
   80ec2:	4432      	add	r2, r6
   80ec4:	2b07      	cmp	r3, #7
   80ec6:	f8c4 b000 	str.w	fp, [r4]
   80eca:	6066      	str	r6, [r4, #4]
   80ecc:	920f      	str	r2, [sp, #60]	; 0x3c
   80ece:	930e      	str	r3, [sp, #56]	; 0x38
   80ed0:	dd79      	ble.n	80fc6 <_vfiprintf_r+0x196>
   80ed2:	2a00      	cmp	r2, #0
   80ed4:	f040 84ad 	bne.w	81832 <_vfiprintf_r+0xa02>
   80ed8:	4654      	mov	r4, sl
   80eda:	9b02      	ldr	r3, [sp, #8]
   80edc:	920e      	str	r2, [sp, #56]	; 0x38
   80ede:	4433      	add	r3, r6
   80ee0:	9302      	str	r3, [sp, #8]
   80ee2:	782b      	ldrb	r3, [r5, #0]
   80ee4:	2b00      	cmp	r3, #0
   80ee6:	f000 835f 	beq.w	815a8 <_vfiprintf_r+0x778>
   80eea:	f04f 0300 	mov.w	r3, #0
   80eee:	2100      	movs	r1, #0
   80ef0:	f04f 3cff 	mov.w	ip, #4294967295
   80ef4:	f88d 302f 	strb.w	r3, [sp, #47]	; 0x2f
   80ef8:	1c68      	adds	r0, r5, #1
   80efa:	786b      	ldrb	r3, [r5, #1]
   80efc:	4688      	mov	r8, r1
   80efe:	460d      	mov	r5, r1
   80f00:	4666      	mov	r6, ip
   80f02:	f100 0b01 	add.w	fp, r0, #1
   80f06:	f1a3 0220 	sub.w	r2, r3, #32
   80f0a:	2a58      	cmp	r2, #88	; 0x58
   80f0c:	f200 82aa 	bhi.w	81464 <_vfiprintf_r+0x634>
   80f10:	e8df f012 	tbh	[pc, r2, lsl #1]
   80f14:	02a8029a 	.word	0x02a8029a
   80f18:	02a202a8 	.word	0x02a202a8
   80f1c:	02a802a8 	.word	0x02a802a8
   80f20:	02a802a8 	.word	0x02a802a8
   80f24:	02a802a8 	.word	0x02a802a8
   80f28:	02600254 	.word	0x02600254
   80f2c:	010d02a8 	.word	0x010d02a8
   80f30:	02a8026c 	.word	0x02a8026c
   80f34:	012f0129 	.word	0x012f0129
   80f38:	012f012f 	.word	0x012f012f
   80f3c:	012f012f 	.word	0x012f012f
   80f40:	012f012f 	.word	0x012f012f
   80f44:	012f012f 	.word	0x012f012f
   80f48:	02a802a8 	.word	0x02a802a8
   80f4c:	02a802a8 	.word	0x02a802a8
   80f50:	02a802a8 	.word	0x02a802a8
   80f54:	02a802a8 	.word	0x02a802a8
   80f58:	02a802a8 	.word	0x02a802a8
   80f5c:	02a8013d 	.word	0x02a8013d
   80f60:	02a802a8 	.word	0x02a802a8
   80f64:	02a802a8 	.word	0x02a802a8
   80f68:	02a802a8 	.word	0x02a802a8
   80f6c:	02a802a8 	.word	0x02a802a8
   80f70:	017402a8 	.word	0x017402a8
   80f74:	02a802a8 	.word	0x02a802a8
   80f78:	02a802a8 	.word	0x02a802a8
   80f7c:	018b02a8 	.word	0x018b02a8
   80f80:	02a802a8 	.word	0x02a802a8
   80f84:	02a801a3 	.word	0x02a801a3
   80f88:	02a802a8 	.word	0x02a802a8
   80f8c:	02a802a8 	.word	0x02a802a8
   80f90:	02a802a8 	.word	0x02a802a8
   80f94:	02a802a8 	.word	0x02a802a8
   80f98:	01c702a8 	.word	0x01c702a8
   80f9c:	02a801da 	.word	0x02a801da
   80fa0:	02a802a8 	.word	0x02a802a8
   80fa4:	01da0123 	.word	0x01da0123
   80fa8:	02a802a8 	.word	0x02a802a8
   80fac:	02a8024b 	.word	0x02a8024b
   80fb0:	01130288 	.word	0x01130288
   80fb4:	020701f4 	.word	0x020701f4
   80fb8:	020d02a8 	.word	0x020d02a8
   80fbc:	008102a8 	.word	0x008102a8
   80fc0:	02a802a8 	.word	0x02a802a8
   80fc4:	0232      	.short	0x0232
   80fc6:	3408      	adds	r4, #8
   80fc8:	9b02      	ldr	r3, [sp, #8]
   80fca:	4433      	add	r3, r6
   80fcc:	9302      	str	r3, [sp, #8]
   80fce:	e788      	b.n	80ee2 <_vfiprintf_r+0xb2>
   80fd0:	9801      	ldr	r0, [sp, #4]
   80fd2:	9900      	ldr	r1, [sp, #0]
   80fd4:	f000 fd72 	bl	81abc <__swsetup_r>
   80fd8:	b9a8      	cbnz	r0, 81006 <_vfiprintf_r+0x1d6>
   80fda:	9b00      	ldr	r3, [sp, #0]
   80fdc:	899a      	ldrh	r2, [r3, #12]
   80fde:	f002 021a 	and.w	r2, r2, #26
   80fe2:	2a0a      	cmp	r2, #10
   80fe4:	f47f af4c 	bne.w	80e80 <_vfiprintf_r+0x50>
   80fe8:	9b00      	ldr	r3, [sp, #0]
   80fea:	f9b3 300e 	ldrsh.w	r3, [r3, #14]
   80fee:	2b00      	cmp	r3, #0
   80ff0:	f6ff af46 	blt.w	80e80 <_vfiprintf_r+0x50>
   80ff4:	9801      	ldr	r0, [sp, #4]
   80ff6:	9900      	ldr	r1, [sp, #0]
   80ff8:	465a      	mov	r2, fp
   80ffa:	4623      	mov	r3, r4
   80ffc:	f000 fd20 	bl	81a40 <__sbprintf>
   81000:	b02b      	add	sp, #172	; 0xac
   81002:	e8bd 8ff0 	ldmia.w	sp!, {r4, r5, r6, r7, r8, r9, sl, fp, pc}
   81006:	f04f 30ff 	mov.w	r0, #4294967295
   8100a:	b02b      	add	sp, #172	; 0xac
   8100c:	e8bd 8ff0 	ldmia.w	sp!, {r4, r5, r6, r7, r8, r9, sl, fp, pc}
   81010:	f000 fefe 	bl	81e10 <__sinit>
   81014:	e719      	b.n	80e4a <_vfiprintf_r+0x1a>
   81016:	f018 0f20 	tst.w	r8, #32
   8101a:	9503      	str	r5, [sp, #12]
   8101c:	46b4      	mov	ip, r6
   8101e:	f000 810c 	beq.w	8123a <_vfiprintf_r+0x40a>
   81022:	9b04      	ldr	r3, [sp, #16]
   81024:	3307      	adds	r3, #7
   81026:	f023 0307 	bic.w	r3, r3, #7
   8102a:	f103 0208 	add.w	r2, r3, #8
   8102e:	e9d3 6700 	ldrd	r6, r7, [r3]
   81032:	9204      	str	r2, [sp, #16]
   81034:	2301      	movs	r3, #1
   81036:	f04f 0200 	mov.w	r2, #0
   8103a:	46e1      	mov	r9, ip
   8103c:	f88d 202f 	strb.w	r2, [sp, #47]	; 0x2f
   81040:	2500      	movs	r5, #0
   81042:	f1bc 0f00 	cmp.w	ip, #0
   81046:	bfa8      	it	ge
   81048:	f028 0880 	bicge.w	r8, r8, #128	; 0x80
   8104c:	ea56 0207 	orrs.w	r2, r6, r7
   81050:	f040 80c4 	bne.w	811dc <_vfiprintf_r+0x3ac>
   81054:	f1bc 0f00 	cmp.w	ip, #0
   81058:	f000 8380 	beq.w	8175c <_vfiprintf_r+0x92c>
   8105c:	2b01      	cmp	r3, #1
   8105e:	f000 80c5 	beq.w	811ec <_vfiprintf_r+0x3bc>
   81062:	2b02      	cmp	r3, #2
   81064:	f000 8386 	beq.w	81774 <_vfiprintf_r+0x944>
   81068:	4651      	mov	r1, sl
   8106a:	08f2      	lsrs	r2, r6, #3
   8106c:	ea42 7247 	orr.w	r2, r2, r7, lsl #29
   81070:	08f8      	lsrs	r0, r7, #3
   81072:	f006 0307 	and.w	r3, r6, #7
   81076:	4607      	mov	r7, r0
   81078:	4616      	mov	r6, r2
   8107a:	3330      	adds	r3, #48	; 0x30
   8107c:	ea56 0207 	orrs.w	r2, r6, r7
   81080:	f801 3d01 	strb.w	r3, [r1, #-1]!
   81084:	d1f1      	bne.n	8106a <_vfiprintf_r+0x23a>
   81086:	f018 0f01 	tst.w	r8, #1
   8108a:	9107      	str	r1, [sp, #28]
   8108c:	f040 83fa 	bne.w	81884 <_vfiprintf_r+0xa54>
   81090:	ebc1 090a 	rsb	r9, r1, sl
   81094:	45e1      	cmp	r9, ip
   81096:	464e      	mov	r6, r9
   81098:	bfb8      	it	lt
   8109a:	4666      	movlt	r6, ip
   8109c:	b105      	cbz	r5, 810a0 <_vfiprintf_r+0x270>
   8109e:	3601      	adds	r6, #1
   810a0:	f018 0302 	ands.w	r3, r8, #2
   810a4:	9305      	str	r3, [sp, #20]
   810a6:	bf18      	it	ne
   810a8:	3602      	addne	r6, #2
   810aa:	f018 0384 	ands.w	r3, r8, #132	; 0x84
   810ae:	9306      	str	r3, [sp, #24]
   810b0:	f040 81f9 	bne.w	814a6 <_vfiprintf_r+0x676>
   810b4:	9b03      	ldr	r3, [sp, #12]
   810b6:	1b9d      	subs	r5, r3, r6
   810b8:	2d00      	cmp	r5, #0
   810ba:	f340 81f4 	ble.w	814a6 <_vfiprintf_r+0x676>
   810be:	2d10      	cmp	r5, #16
   810c0:	f340 848a 	ble.w	819d8 <_vfiprintf_r+0xba8>
   810c4:	4620      	mov	r0, r4
   810c6:	f8dd e038 	ldr.w	lr, [sp, #56]	; 0x38
   810ca:	4664      	mov	r4, ip
   810cc:	9a0f      	ldr	r2, [sp, #60]	; 0x3c
   810ce:	4fc4      	ldr	r7, [pc, #784]	; (813e0 <_vfiprintf_r+0x5b0>)
   810d0:	2310      	movs	r3, #16
   810d2:	4671      	mov	r1, lr
   810d4:	4684      	mov	ip, r0
   810d6:	e007      	b.n	810e8 <_vfiprintf_r+0x2b8>
   810d8:	f101 0e02 	add.w	lr, r1, #2
   810dc:	4601      	mov	r1, r0
   810de:	f10c 0c08 	add.w	ip, ip, #8
   810e2:	3d10      	subs	r5, #16
   810e4:	2d10      	cmp	r5, #16
   810e6:	dd13      	ble.n	81110 <_vfiprintf_r+0x2e0>
   810e8:	1c48      	adds	r0, r1, #1
   810ea:	3210      	adds	r2, #16
   810ec:	2807      	cmp	r0, #7
   810ee:	920f      	str	r2, [sp, #60]	; 0x3c
   810f0:	f8cc 7000 	str.w	r7, [ip]
   810f4:	f8cc 3004 	str.w	r3, [ip, #4]
   810f8:	900e      	str	r0, [sp, #56]	; 0x38
   810fa:	dded      	ble.n	810d8 <_vfiprintf_r+0x2a8>
   810fc:	2a00      	cmp	r2, #0
   810fe:	f040 81c2 	bne.w	81486 <_vfiprintf_r+0x656>
   81102:	3d10      	subs	r5, #16
   81104:	2d10      	cmp	r5, #16
   81106:	4611      	mov	r1, r2
   81108:	f04f 0e01 	mov.w	lr, #1
   8110c:	46d4      	mov	ip, sl
   8110e:	dceb      	bgt.n	810e8 <_vfiprintf_r+0x2b8>
   81110:	4663      	mov	r3, ip
   81112:	4671      	mov	r1, lr
   81114:	46a4      	mov	ip, r4
   81116:	461c      	mov	r4, r3
   81118:	442a      	add	r2, r5
   8111a:	2907      	cmp	r1, #7
   8111c:	920f      	str	r2, [sp, #60]	; 0x3c
   8111e:	6027      	str	r7, [r4, #0]
   81120:	6065      	str	r5, [r4, #4]
   81122:	910e      	str	r1, [sp, #56]	; 0x38
   81124:	f300 8346 	bgt.w	817b4 <_vfiprintf_r+0x984>
   81128:	3408      	adds	r4, #8
   8112a:	1c48      	adds	r0, r1, #1
   8112c:	e1be      	b.n	814ac <_vfiprintf_r+0x67c>
   8112e:	4658      	mov	r0, fp
   81130:	f048 0804 	orr.w	r8, r8, #4
   81134:	f89b 3000 	ldrb.w	r3, [fp]
   81138:	e6e3      	b.n	80f02 <_vfiprintf_r+0xd2>
   8113a:	f018 0320 	ands.w	r3, r8, #32
   8113e:	9503      	str	r5, [sp, #12]
   81140:	46b4      	mov	ip, r6
   81142:	d062      	beq.n	8120a <_vfiprintf_r+0x3da>
   81144:	9b04      	ldr	r3, [sp, #16]
   81146:	3307      	adds	r3, #7
   81148:	f023 0307 	bic.w	r3, r3, #7
   8114c:	f103 0208 	add.w	r2, r3, #8
   81150:	e9d3 6700 	ldrd	r6, r7, [r3]
   81154:	9204      	str	r2, [sp, #16]
   81156:	2300      	movs	r3, #0
   81158:	e76d      	b.n	81036 <_vfiprintf_r+0x206>
   8115a:	f048 0840 	orr.w	r8, r8, #64	; 0x40
   8115e:	f89b 3000 	ldrb.w	r3, [fp]
   81162:	4658      	mov	r0, fp
   81164:	e6cd      	b.n	80f02 <_vfiprintf_r+0xd2>
   81166:	f048 0880 	orr.w	r8, r8, #128	; 0x80
   8116a:	f89b 3000 	ldrb.w	r3, [fp]
   8116e:	4658      	mov	r0, fp
   81170:	e6c7      	b.n	80f02 <_vfiprintf_r+0xd2>
   81172:	f1a3 0230 	sub.w	r2, r3, #48	; 0x30
   81176:	2500      	movs	r5, #0
   81178:	f81b 3b01 	ldrb.w	r3, [fp], #1
   8117c:	eb05 0585 	add.w	r5, r5, r5, lsl #2
   81180:	eb02 0545 	add.w	r5, r2, r5, lsl #1
   81184:	f1a3 0230 	sub.w	r2, r3, #48	; 0x30
   81188:	2a09      	cmp	r2, #9
   8118a:	d9f5      	bls.n	81178 <_vfiprintf_r+0x348>
   8118c:	e6bb      	b.n	80f06 <_vfiprintf_r+0xd6>
   8118e:	f048 0810 	orr.w	r8, r8, #16
   81192:	f018 0f20 	tst.w	r8, #32
   81196:	9503      	str	r5, [sp, #12]
   81198:	46b4      	mov	ip, r6
   8119a:	f88d 102f 	strb.w	r1, [sp, #47]	; 0x2f
   8119e:	f000 809b 	beq.w	812d8 <_vfiprintf_r+0x4a8>
   811a2:	9904      	ldr	r1, [sp, #16]
   811a4:	3107      	adds	r1, #7
   811a6:	f021 0107 	bic.w	r1, r1, #7
   811aa:	e9d1 2300 	ldrd	r2, r3, [r1]
   811ae:	4616      	mov	r6, r2
   811b0:	461f      	mov	r7, r3
   811b2:	3108      	adds	r1, #8
   811b4:	9104      	str	r1, [sp, #16]
   811b6:	2a00      	cmp	r2, #0
   811b8:	f173 0300 	sbcs.w	r3, r3, #0
   811bc:	f2c0 83a4 	blt.w	81908 <_vfiprintf_r+0xad8>
   811c0:	f1bc 0f00 	cmp.w	ip, #0
   811c4:	bfa8      	it	ge
   811c6:	f028 0880 	bicge.w	r8, r8, #128	; 0x80
   811ca:	ea56 0207 	orrs.w	r2, r6, r7
   811ce:	f89d 502f 	ldrb.w	r5, [sp, #47]	; 0x2f
   811d2:	46e1      	mov	r9, ip
   811d4:	f04f 0301 	mov.w	r3, #1
   811d8:	f43f af3c 	beq.w	81054 <_vfiprintf_r+0x224>
   811dc:	2b01      	cmp	r3, #1
   811de:	f47f af40 	bne.w	81062 <_vfiprintf_r+0x232>
   811e2:	2f00      	cmp	r7, #0
   811e4:	bf08      	it	eq
   811e6:	2e0a      	cmpeq	r6, #10
   811e8:	f080 8332 	bcs.w	81850 <_vfiprintf_r+0xa20>
   811ec:	ab2a      	add	r3, sp, #168	; 0xa8
   811ee:	3630      	adds	r6, #48	; 0x30
   811f0:	f803 6d41 	strb.w	r6, [r3, #-65]!
   811f4:	ebc3 090a 	rsb	r9, r3, sl
   811f8:	9307      	str	r3, [sp, #28]
   811fa:	e74b      	b.n	81094 <_vfiprintf_r+0x264>
   811fc:	f048 0810 	orr.w	r8, r8, #16
   81200:	f018 0320 	ands.w	r3, r8, #32
   81204:	9503      	str	r5, [sp, #12]
   81206:	46b4      	mov	ip, r6
   81208:	d19c      	bne.n	81144 <_vfiprintf_r+0x314>
   8120a:	f018 0210 	ands.w	r2, r8, #16
   8120e:	f040 82f7 	bne.w	81800 <_vfiprintf_r+0x9d0>
   81212:	f018 0340 	ands.w	r3, r8, #64	; 0x40
   81216:	f000 82f3 	beq.w	81800 <_vfiprintf_r+0x9d0>
   8121a:	9904      	ldr	r1, [sp, #16]
   8121c:	4613      	mov	r3, r2
   8121e:	460a      	mov	r2, r1
   81220:	3204      	adds	r2, #4
   81222:	880e      	ldrh	r6, [r1, #0]
   81224:	2700      	movs	r7, #0
   81226:	9204      	str	r2, [sp, #16]
   81228:	e705      	b.n	81036 <_vfiprintf_r+0x206>
   8122a:	f048 0810 	orr.w	r8, r8, #16
   8122e:	f018 0f20 	tst.w	r8, #32
   81232:	9503      	str	r5, [sp, #12]
   81234:	46b4      	mov	ip, r6
   81236:	f47f aef4 	bne.w	81022 <_vfiprintf_r+0x1f2>
   8123a:	9a04      	ldr	r2, [sp, #16]
   8123c:	f018 0f10 	tst.w	r8, #16
   81240:	4613      	mov	r3, r2
   81242:	f040 82e4 	bne.w	8180e <_vfiprintf_r+0x9de>
   81246:	f018 0f40 	tst.w	r8, #64	; 0x40
   8124a:	f000 82e0 	beq.w	8180e <_vfiprintf_r+0x9de>
   8124e:	8816      	ldrh	r6, [r2, #0]
   81250:	3204      	adds	r2, #4
   81252:	2700      	movs	r7, #0
   81254:	2301      	movs	r3, #1
   81256:	9204      	str	r2, [sp, #16]
   81258:	e6ed      	b.n	81036 <_vfiprintf_r+0x206>
   8125a:	4a62      	ldr	r2, [pc, #392]	; (813e4 <_vfiprintf_r+0x5b4>)
   8125c:	f018 0f20 	tst.w	r8, #32
   81260:	9503      	str	r5, [sp, #12]
   81262:	46b4      	mov	ip, r6
   81264:	f88d 102f 	strb.w	r1, [sp, #47]	; 0x2f
   81268:	9209      	str	r2, [sp, #36]	; 0x24
   8126a:	f000 808f 	beq.w	8138c <_vfiprintf_r+0x55c>
   8126e:	9a04      	ldr	r2, [sp, #16]
   81270:	3207      	adds	r2, #7
   81272:	f022 0207 	bic.w	r2, r2, #7
   81276:	f102 0108 	add.w	r1, r2, #8
   8127a:	9104      	str	r1, [sp, #16]
   8127c:	e9d2 6700 	ldrd	r6, r7, [r2]
   81280:	f018 0f01 	tst.w	r8, #1
   81284:	f000 828f 	beq.w	817a6 <_vfiprintf_r+0x976>
   81288:	ea56 0207 	orrs.w	r2, r6, r7
   8128c:	f000 828b 	beq.w	817a6 <_vfiprintf_r+0x976>
   81290:	2230      	movs	r2, #48	; 0x30
   81292:	f88d 3031 	strb.w	r3, [sp, #49]	; 0x31
   81296:	f048 0802 	orr.w	r8, r8, #2
   8129a:	f88d 2030 	strb.w	r2, [sp, #48]	; 0x30
   8129e:	2302      	movs	r3, #2
   812a0:	e6c9      	b.n	81036 <_vfiprintf_r+0x206>
   812a2:	9a04      	ldr	r2, [sp, #16]
   812a4:	2601      	movs	r6, #1
   812a6:	6813      	ldr	r3, [r2, #0]
   812a8:	f04f 0100 	mov.w	r1, #0
   812ac:	f88d 3040 	strb.w	r3, [sp, #64]	; 0x40
   812b0:	4613      	mov	r3, r2
   812b2:	46b1      	mov	r9, r6
   812b4:	3304      	adds	r3, #4
   812b6:	9304      	str	r3, [sp, #16]
   812b8:	ab10      	add	r3, sp, #64	; 0x40
   812ba:	9503      	str	r5, [sp, #12]
   812bc:	f88d 102f 	strb.w	r1, [sp, #47]	; 0x2f
   812c0:	9307      	str	r3, [sp, #28]
   812c2:	f04f 0c00 	mov.w	ip, #0
   812c6:	e6eb      	b.n	810a0 <_vfiprintf_r+0x270>
   812c8:	f018 0f20 	tst.w	r8, #32
   812cc:	9503      	str	r5, [sp, #12]
   812ce:	46b4      	mov	ip, r6
   812d0:	f88d 102f 	strb.w	r1, [sp, #47]	; 0x2f
   812d4:	f47f af65 	bne.w	811a2 <_vfiprintf_r+0x372>
   812d8:	9a04      	ldr	r2, [sp, #16]
   812da:	f018 0f10 	tst.w	r8, #16
   812de:	4613      	mov	r3, r2
   812e0:	f040 82a0 	bne.w	81824 <_vfiprintf_r+0x9f4>
   812e4:	f018 0f40 	tst.w	r8, #64	; 0x40
   812e8:	f000 829c 	beq.w	81824 <_vfiprintf_r+0x9f4>
   812ec:	f9b2 6000 	ldrsh.w	r6, [r2]
   812f0:	3304      	adds	r3, #4
   812f2:	17f7      	asrs	r7, r6, #31
   812f4:	9304      	str	r3, [sp, #16]
   812f6:	4632      	mov	r2, r6
   812f8:	463b      	mov	r3, r7
   812fa:	e75c      	b.n	811b6 <_vfiprintf_r+0x386>
   812fc:	9904      	ldr	r1, [sp, #16]
   812fe:	2378      	movs	r3, #120	; 0x78
   81300:	f88d 3031 	strb.w	r3, [sp, #49]	; 0x31
   81304:	4b38      	ldr	r3, [pc, #224]	; (813e8 <_vfiprintf_r+0x5b8>)
   81306:	46b4      	mov	ip, r6
   81308:	2230      	movs	r2, #48	; 0x30
   8130a:	680e      	ldr	r6, [r1, #0]
   8130c:	3104      	adds	r1, #4
   8130e:	9309      	str	r3, [sp, #36]	; 0x24
   81310:	9503      	str	r5, [sp, #12]
   81312:	f048 0802 	orr.w	r8, r8, #2
   81316:	9104      	str	r1, [sp, #16]
   81318:	2700      	movs	r7, #0
   8131a:	f88d 2030 	strb.w	r2, [sp, #48]	; 0x30
   8131e:	2302      	movs	r3, #2
   81320:	e689      	b.n	81036 <_vfiprintf_r+0x206>
   81322:	f048 0820 	orr.w	r8, r8, #32
   81326:	f89b 3000 	ldrb.w	r3, [fp]
   8132a:	4658      	mov	r0, fp
   8132c:	e5e9      	b.n	80f02 <_vfiprintf_r+0xd2>
   8132e:	f04f 0100 	mov.w	r1, #0
   81332:	9a04      	ldr	r2, [sp, #16]
   81334:	9503      	str	r5, [sp, #12]
   81336:	6813      	ldr	r3, [r2, #0]
   81338:	46b4      	mov	ip, r6
   8133a:	9307      	str	r3, [sp, #28]
   8133c:	f88d 102f 	strb.w	r1, [sp, #47]	; 0x2f
   81340:	1d15      	adds	r5, r2, #4
   81342:	2b00      	cmp	r3, #0
   81344:	f000 834e 	beq.w	819e4 <_vfiprintf_r+0xbb4>
   81348:	2e00      	cmp	r6, #0
   8134a:	f2c0 8329 	blt.w	819a0 <_vfiprintf_r+0xb70>
   8134e:	9e07      	ldr	r6, [sp, #28]
   81350:	4662      	mov	r2, ip
   81352:	4630      	mov	r0, r6
   81354:	2100      	movs	r1, #0
   81356:	f8cd c010 	str.w	ip, [sp, #16]
   8135a:	f001 fbc9 	bl	82af0 <memchr>
   8135e:	f8dd c010 	ldr.w	ip, [sp, #16]
   81362:	2800      	cmp	r0, #0
   81364:	f000 834e 	beq.w	81a04 <_vfiprintf_r+0xbd4>
   81368:	9504      	str	r5, [sp, #16]
   8136a:	ebc6 0900 	rsb	r9, r6, r0
   8136e:	f89d 502f 	ldrb.w	r5, [sp, #47]	; 0x2f
   81372:	f04f 0c00 	mov.w	ip, #0
   81376:	e68d      	b.n	81094 <_vfiprintf_r+0x264>
   81378:	4a1b      	ldr	r2, [pc, #108]	; (813e8 <_vfiprintf_r+0x5b8>)
   8137a:	f018 0f20 	tst.w	r8, #32
   8137e:	9503      	str	r5, [sp, #12]
   81380:	46b4      	mov	ip, r6
   81382:	9209      	str	r2, [sp, #36]	; 0x24
   81384:	f88d 102f 	strb.w	r1, [sp, #47]	; 0x2f
   81388:	f47f af71 	bne.w	8126e <_vfiprintf_r+0x43e>
   8138c:	9904      	ldr	r1, [sp, #16]
   8138e:	f018 0f10 	tst.w	r8, #16
   81392:	460a      	mov	r2, r1
   81394:	f040 8241 	bne.w	8181a <_vfiprintf_r+0x9ea>
   81398:	f018 0f40 	tst.w	r8, #64	; 0x40
   8139c:	f000 823d 	beq.w	8181a <_vfiprintf_r+0x9ea>
   813a0:	3204      	adds	r2, #4
   813a2:	880e      	ldrh	r6, [r1, #0]
   813a4:	2700      	movs	r7, #0
   813a6:	9204      	str	r2, [sp, #16]
   813a8:	e76a      	b.n	81280 <_vfiprintf_r+0x450>
   813aa:	f89b 3000 	ldrb.w	r3, [fp]
   813ae:	2b6c      	cmp	r3, #108	; 0x6c
   813b0:	f000 82e9 	beq.w	81986 <_vfiprintf_r+0xb56>
   813b4:	f048 0810 	orr.w	r8, r8, #16
   813b8:	4658      	mov	r0, fp
   813ba:	e5a2      	b.n	80f02 <_vfiprintf_r+0xd2>
   813bc:	9a04      	ldr	r2, [sp, #16]
   813be:	4613      	mov	r3, r2
   813c0:	6815      	ldr	r5, [r2, #0]
   813c2:	3304      	adds	r3, #4
   813c4:	2d00      	cmp	r5, #0
   813c6:	f2c0 82e6 	blt.w	81996 <_vfiprintf_r+0xb66>
   813ca:	9304      	str	r3, [sp, #16]
   813cc:	f89b 3000 	ldrb.w	r3, [fp]
   813d0:	4658      	mov	r0, fp
   813d2:	e596      	b.n	80f02 <_vfiprintf_r+0xd2>
   813d4:	f89b 3000 	ldrb.w	r3, [fp]
   813d8:	4658      	mov	r0, fp
   813da:	212b      	movs	r1, #43	; 0x2b
   813dc:	e591      	b.n	80f02 <_vfiprintf_r+0xd2>
   813de:	bf00      	nop
   813e0:	00083b6c 	.word	0x00083b6c
   813e4:	00083b3c 	.word	0x00083b3c
   813e8:	00083b50 	.word	0x00083b50
   813ec:	f89b 3000 	ldrb.w	r3, [fp]
   813f0:	f10b 0001 	add.w	r0, fp, #1
   813f4:	2b2a      	cmp	r3, #42	; 0x2a
   813f6:	f000 830f 	beq.w	81a18 <_vfiprintf_r+0xbe8>
   813fa:	f1a3 0230 	sub.w	r2, r3, #48	; 0x30
   813fe:	2a09      	cmp	r2, #9
   81400:	4683      	mov	fp, r0
   81402:	f04f 0600 	mov.w	r6, #0
   81406:	f63f ad7e 	bhi.w	80f06 <_vfiprintf_r+0xd6>
   8140a:	f81b 3b01 	ldrb.w	r3, [fp], #1
   8140e:	eb06 0686 	add.w	r6, r6, r6, lsl #2
   81412:	eb02 0646 	add.w	r6, r2, r6, lsl #1
   81416:	f1a3 0230 	sub.w	r2, r3, #48	; 0x30
   8141a:	2a09      	cmp	r2, #9
   8141c:	d9f5      	bls.n	8140a <_vfiprintf_r+0x5da>
   8141e:	ea46 76e6 	orr.w	r6, r6, r6, asr #31
   81422:	e570      	b.n	80f06 <_vfiprintf_r+0xd6>
   81424:	f018 0f20 	tst.w	r8, #32
   81428:	f88d 102f 	strb.w	r1, [sp, #47]	; 0x2f
   8142c:	f000 8283 	beq.w	81936 <_vfiprintf_r+0xb06>
   81430:	9a04      	ldr	r2, [sp, #16]
   81432:	4613      	mov	r3, r2
   81434:	3304      	adds	r3, #4
   81436:	9304      	str	r3, [sp, #16]
   81438:	9b02      	ldr	r3, [sp, #8]
   8143a:	6811      	ldr	r1, [r2, #0]
   8143c:	17df      	asrs	r7, r3, #31
   8143e:	461a      	mov	r2, r3
   81440:	463b      	mov	r3, r7
   81442:	e9c1 2300 	strd	r2, r3, [r1]
   81446:	e525      	b.n	80e94 <_vfiprintf_r+0x64>
   81448:	4658      	mov	r0, fp
   8144a:	f89b 3000 	ldrb.w	r3, [fp]
   8144e:	2900      	cmp	r1, #0
   81450:	f47f ad57 	bne.w	80f02 <_vfiprintf_r+0xd2>
   81454:	2120      	movs	r1, #32
   81456:	e554      	b.n	80f02 <_vfiprintf_r+0xd2>
   81458:	f048 0801 	orr.w	r8, r8, #1
   8145c:	4658      	mov	r0, fp
   8145e:	f89b 3000 	ldrb.w	r3, [fp]
   81462:	e54e      	b.n	80f02 <_vfiprintf_r+0xd2>
   81464:	9503      	str	r5, [sp, #12]
   81466:	f88d 102f 	strb.w	r1, [sp, #47]	; 0x2f
   8146a:	2b00      	cmp	r3, #0
   8146c:	f000 809c 	beq.w	815a8 <_vfiprintf_r+0x778>
   81470:	f88d 3040 	strb.w	r3, [sp, #64]	; 0x40
   81474:	f04f 0300 	mov.w	r3, #0
   81478:	2601      	movs	r6, #1
   8147a:	f88d 302f 	strb.w	r3, [sp, #47]	; 0x2f
   8147e:	ab10      	add	r3, sp, #64	; 0x40
   81480:	46b1      	mov	r9, r6
   81482:	9307      	str	r3, [sp, #28]
   81484:	e71d      	b.n	812c2 <_vfiprintf_r+0x492>
   81486:	9801      	ldr	r0, [sp, #4]
   81488:	9900      	ldr	r1, [sp, #0]
   8148a:	aa0d      	add	r2, sp, #52	; 0x34
   8148c:	9308      	str	r3, [sp, #32]
   8148e:	f7ff fc93 	bl	80db8 <__sprint_r.part.0>
   81492:	2800      	cmp	r0, #0
   81494:	f040 808f 	bne.w	815b6 <_vfiprintf_r+0x786>
   81498:	990e      	ldr	r1, [sp, #56]	; 0x38
   8149a:	46d4      	mov	ip, sl
   8149c:	9a0f      	ldr	r2, [sp, #60]	; 0x3c
   8149e:	f101 0e01 	add.w	lr, r1, #1
   814a2:	9b08      	ldr	r3, [sp, #32]
   814a4:	e61d      	b.n	810e2 <_vfiprintf_r+0x2b2>
   814a6:	990e      	ldr	r1, [sp, #56]	; 0x38
   814a8:	9a0f      	ldr	r2, [sp, #60]	; 0x3c
   814aa:	1c48      	adds	r0, r1, #1
   814ac:	f89d 302f 	ldrb.w	r3, [sp, #47]	; 0x2f
   814b0:	b16b      	cbz	r3, 814ce <_vfiprintf_r+0x69e>
   814b2:	3201      	adds	r2, #1
   814b4:	f10d 032f 	add.w	r3, sp, #47	; 0x2f
   814b8:	2101      	movs	r1, #1
   814ba:	2807      	cmp	r0, #7
   814bc:	920f      	str	r2, [sp, #60]	; 0x3c
   814be:	900e      	str	r0, [sp, #56]	; 0x38
   814c0:	6023      	str	r3, [r4, #0]
   814c2:	6061      	str	r1, [r4, #4]
   814c4:	f300 8134 	bgt.w	81730 <_vfiprintf_r+0x900>
   814c8:	4601      	mov	r1, r0
   814ca:	3408      	adds	r4, #8
   814cc:	3001      	adds	r0, #1
   814ce:	9b05      	ldr	r3, [sp, #20]
   814d0:	b163      	cbz	r3, 814ec <_vfiprintf_r+0x6bc>
   814d2:	3202      	adds	r2, #2
   814d4:	a90c      	add	r1, sp, #48	; 0x30
   814d6:	2302      	movs	r3, #2
   814d8:	2807      	cmp	r0, #7
   814da:	920f      	str	r2, [sp, #60]	; 0x3c
   814dc:	900e      	str	r0, [sp, #56]	; 0x38
   814de:	e884 000a 	stmia.w	r4, {r1, r3}
   814e2:	f300 8134 	bgt.w	8174e <_vfiprintf_r+0x91e>
   814e6:	4601      	mov	r1, r0
   814e8:	3408      	adds	r4, #8
   814ea:	3001      	adds	r0, #1
   814ec:	9b06      	ldr	r3, [sp, #24]
   814ee:	2b80      	cmp	r3, #128	; 0x80
   814f0:	f000 80d4 	beq.w	8169c <_vfiprintf_r+0x86c>
   814f4:	ebc9 070c 	rsb	r7, r9, ip
   814f8:	2f00      	cmp	r7, #0
   814fa:	dd2b      	ble.n	81554 <_vfiprintf_r+0x724>
   814fc:	2f10      	cmp	r7, #16
   814fe:	4dab      	ldr	r5, [pc, #684]	; (817ac <_vfiprintf_r+0x97c>)
   81500:	dd1f      	ble.n	81542 <_vfiprintf_r+0x712>
   81502:	46a6      	mov	lr, r4
   81504:	2310      	movs	r3, #16
   81506:	9c01      	ldr	r4, [sp, #4]
   81508:	e007      	b.n	8151a <_vfiprintf_r+0x6ea>
   8150a:	f101 0c02 	add.w	ip, r1, #2
   8150e:	4601      	mov	r1, r0
   81510:	f10e 0e08 	add.w	lr, lr, #8
   81514:	3f10      	subs	r7, #16
   81516:	2f10      	cmp	r7, #16
   81518:	dd11      	ble.n	8153e <_vfiprintf_r+0x70e>
   8151a:	1c48      	adds	r0, r1, #1
   8151c:	3210      	adds	r2, #16
   8151e:	2807      	cmp	r0, #7
   81520:	920f      	str	r2, [sp, #60]	; 0x3c
   81522:	f8ce 5000 	str.w	r5, [lr]
   81526:	f8ce 3004 	str.w	r3, [lr, #4]
   8152a:	900e      	str	r0, [sp, #56]	; 0x38
   8152c:	dded      	ble.n	8150a <_vfiprintf_r+0x6da>
   8152e:	bb6a      	cbnz	r2, 8158c <_vfiprintf_r+0x75c>
   81530:	3f10      	subs	r7, #16
   81532:	2f10      	cmp	r7, #16
   81534:	f04f 0c01 	mov.w	ip, #1
   81538:	4611      	mov	r1, r2
   8153a:	46d6      	mov	lr, sl
   8153c:	dced      	bgt.n	8151a <_vfiprintf_r+0x6ea>
   8153e:	4674      	mov	r4, lr
   81540:	4660      	mov	r0, ip
   81542:	443a      	add	r2, r7
   81544:	2807      	cmp	r0, #7
   81546:	920f      	str	r2, [sp, #60]	; 0x3c
   81548:	e884 00a0 	stmia.w	r4, {r5, r7}
   8154c:	900e      	str	r0, [sp, #56]	; 0x38
   8154e:	dc3b      	bgt.n	815c8 <_vfiprintf_r+0x798>
   81550:	3408      	adds	r4, #8
   81552:	3001      	adds	r0, #1
   81554:	eb02 0309 	add.w	r3, r2, r9
   81558:	9a07      	ldr	r2, [sp, #28]
   8155a:	2807      	cmp	r0, #7
   8155c:	930f      	str	r3, [sp, #60]	; 0x3c
   8155e:	e884 0204 	stmia.w	r4, {r2, r9}
   81562:	900e      	str	r0, [sp, #56]	; 0x38
   81564:	dd3d      	ble.n	815e2 <_vfiprintf_r+0x7b2>
   81566:	2b00      	cmp	r3, #0
   81568:	f040 813f 	bne.w	817ea <_vfiprintf_r+0x9ba>
   8156c:	f018 0f04 	tst.w	r8, #4
   81570:	930e      	str	r3, [sp, #56]	; 0x38
   81572:	f040 8130 	bne.w	817d6 <_vfiprintf_r+0x9a6>
   81576:	9b02      	ldr	r3, [sp, #8]
   81578:	9a03      	ldr	r2, [sp, #12]
   8157a:	4296      	cmp	r6, r2
   8157c:	bfac      	ite	ge
   8157e:	199b      	addge	r3, r3, r6
   81580:	189b      	addlt	r3, r3, r2
   81582:	9302      	str	r3, [sp, #8]
   81584:	2300      	movs	r3, #0
   81586:	930e      	str	r3, [sp, #56]	; 0x38
   81588:	4654      	mov	r4, sl
   8158a:	e483      	b.n	80e94 <_vfiprintf_r+0x64>
   8158c:	4620      	mov	r0, r4
   8158e:	9900      	ldr	r1, [sp, #0]
   81590:	aa0d      	add	r2, sp, #52	; 0x34
   81592:	9305      	str	r3, [sp, #20]
   81594:	f7ff fc10 	bl	80db8 <__sprint_r.part.0>
   81598:	b968      	cbnz	r0, 815b6 <_vfiprintf_r+0x786>
   8159a:	990e      	ldr	r1, [sp, #56]	; 0x38
   8159c:	46d6      	mov	lr, sl
   8159e:	9a0f      	ldr	r2, [sp, #60]	; 0x3c
   815a0:	f101 0c01 	add.w	ip, r1, #1
   815a4:	9b05      	ldr	r3, [sp, #20]
   815a6:	e7b5      	b.n	81514 <_vfiprintf_r+0x6e4>
   815a8:	9b0f      	ldr	r3, [sp, #60]	; 0x3c
   815aa:	b123      	cbz	r3, 815b6 <_vfiprintf_r+0x786>
   815ac:	9801      	ldr	r0, [sp, #4]
   815ae:	9900      	ldr	r1, [sp, #0]
   815b0:	aa0d      	add	r2, sp, #52	; 0x34
   815b2:	f7ff fc01 	bl	80db8 <__sprint_r.part.0>
   815b6:	9b00      	ldr	r3, [sp, #0]
   815b8:	899b      	ldrh	r3, [r3, #12]
   815ba:	065b      	lsls	r3, r3, #25
   815bc:	f53f ad23 	bmi.w	81006 <_vfiprintf_r+0x1d6>
   815c0:	9802      	ldr	r0, [sp, #8]
   815c2:	b02b      	add	sp, #172	; 0xac
   815c4:	e8bd 8ff0 	ldmia.w	sp!, {r4, r5, r6, r7, r8, r9, sl, fp, pc}
   815c8:	2a00      	cmp	r2, #0
   815ca:	f040 8190 	bne.w	818ee <_vfiprintf_r+0xabe>
   815ce:	464b      	mov	r3, r9
   815d0:	4654      	mov	r4, sl
   815d2:	9907      	ldr	r1, [sp, #28]
   815d4:	2201      	movs	r2, #1
   815d6:	f8cd 906c 	str.w	r9, [sp, #108]	; 0x6c
   815da:	f8cd 903c 	str.w	r9, [sp, #60]	; 0x3c
   815de:	911a      	str	r1, [sp, #104]	; 0x68
   815e0:	920e      	str	r2, [sp, #56]	; 0x38
   815e2:	f104 0208 	add.w	r2, r4, #8
   815e6:	f018 0f04 	tst.w	r8, #4
   815ea:	d039      	beq.n	81660 <_vfiprintf_r+0x830>
   815ec:	9903      	ldr	r1, [sp, #12]
   815ee:	1b8d      	subs	r5, r1, r6
   815f0:	2d00      	cmp	r5, #0
   815f2:	dd35      	ble.n	81660 <_vfiprintf_r+0x830>
   815f4:	2d10      	cmp	r5, #16
   815f6:	f340 8200 	ble.w	819fa <_vfiprintf_r+0xbca>
   815fa:	980e      	ldr	r0, [sp, #56]	; 0x38
   815fc:	4f6c      	ldr	r7, [pc, #432]	; (817b0 <_vfiprintf_r+0x980>)
   815fe:	2410      	movs	r4, #16
   81600:	f8dd 8004 	ldr.w	r8, [sp, #4]
   81604:	f8dd 9000 	ldr.w	r9, [sp]
   81608:	e006      	b.n	81618 <_vfiprintf_r+0x7e8>
   8160a:	f100 0e02 	add.w	lr, r0, #2
   8160e:	4608      	mov	r0, r1
   81610:	3208      	adds	r2, #8
   81612:	3d10      	subs	r5, #16
   81614:	2d10      	cmp	r5, #16
   81616:	dd10      	ble.n	8163a <_vfiprintf_r+0x80a>
   81618:	1c41      	adds	r1, r0, #1
   8161a:	3310      	adds	r3, #16
   8161c:	2907      	cmp	r1, #7
   8161e:	930f      	str	r3, [sp, #60]	; 0x3c
   81620:	6017      	str	r7, [r2, #0]
   81622:	6054      	str	r4, [r2, #4]
   81624:	910e      	str	r1, [sp, #56]	; 0x38
   81626:	ddf0      	ble.n	8160a <_vfiprintf_r+0x7da>
   81628:	2b00      	cmp	r3, #0
   8162a:	d12a      	bne.n	81682 <_vfiprintf_r+0x852>
   8162c:	3d10      	subs	r5, #16
   8162e:	2d10      	cmp	r5, #16
   81630:	f04f 0e01 	mov.w	lr, #1
   81634:	4618      	mov	r0, r3
   81636:	4652      	mov	r2, sl
   81638:	dcee      	bgt.n	81618 <_vfiprintf_r+0x7e8>
   8163a:	442b      	add	r3, r5
   8163c:	f1be 0f07 	cmp.w	lr, #7
   81640:	930f      	str	r3, [sp, #60]	; 0x3c
   81642:	6017      	str	r7, [r2, #0]
   81644:	6055      	str	r5, [r2, #4]
   81646:	f8cd e038 	str.w	lr, [sp, #56]	; 0x38
   8164a:	dd09      	ble.n	81660 <_vfiprintf_r+0x830>
   8164c:	2b00      	cmp	r3, #0
   8164e:	d092      	beq.n	81576 <_vfiprintf_r+0x746>
   81650:	9801      	ldr	r0, [sp, #4]
   81652:	9900      	ldr	r1, [sp, #0]
   81654:	aa0d      	add	r2, sp, #52	; 0x34
   81656:	f7ff fbaf 	bl	80db8 <__sprint_r.part.0>
   8165a:	2800      	cmp	r0, #0
   8165c:	d1ab      	bne.n	815b6 <_vfiprintf_r+0x786>
   8165e:	9b0f      	ldr	r3, [sp, #60]	; 0x3c
   81660:	9a02      	ldr	r2, [sp, #8]
   81662:	9903      	ldr	r1, [sp, #12]
   81664:	428e      	cmp	r6, r1
   81666:	bfac      	ite	ge
   81668:	1992      	addge	r2, r2, r6
   8166a:	1852      	addlt	r2, r2, r1
   8166c:	9202      	str	r2, [sp, #8]
   8166e:	2b00      	cmp	r3, #0
   81670:	d088      	beq.n	81584 <_vfiprintf_r+0x754>
   81672:	9801      	ldr	r0, [sp, #4]
   81674:	9900      	ldr	r1, [sp, #0]
   81676:	aa0d      	add	r2, sp, #52	; 0x34
   81678:	f7ff fb9e 	bl	80db8 <__sprint_r.part.0>
   8167c:	2800      	cmp	r0, #0
   8167e:	d081      	beq.n	81584 <_vfiprintf_r+0x754>
   81680:	e799      	b.n	815b6 <_vfiprintf_r+0x786>
   81682:	4640      	mov	r0, r8
   81684:	4649      	mov	r1, r9
   81686:	aa0d      	add	r2, sp, #52	; 0x34
   81688:	f7ff fb96 	bl	80db8 <__sprint_r.part.0>
   8168c:	2800      	cmp	r0, #0
   8168e:	d192      	bne.n	815b6 <_vfiprintf_r+0x786>
   81690:	980e      	ldr	r0, [sp, #56]	; 0x38
   81692:	4652      	mov	r2, sl
   81694:	9b0f      	ldr	r3, [sp, #60]	; 0x3c
   81696:	f100 0e01 	add.w	lr, r0, #1
   8169a:	e7ba      	b.n	81612 <_vfiprintf_r+0x7e2>
   8169c:	9b03      	ldr	r3, [sp, #12]
   8169e:	1b9f      	subs	r7, r3, r6
   816a0:	2f00      	cmp	r7, #0
   816a2:	f77f af27 	ble.w	814f4 <_vfiprintf_r+0x6c4>
   816a6:	2f10      	cmp	r7, #16
   816a8:	f340 81b3 	ble.w	81a12 <_vfiprintf_r+0xbe2>
   816ac:	4620      	mov	r0, r4
   816ae:	4d3f      	ldr	r5, [pc, #252]	; (817ac <_vfiprintf_r+0x97c>)
   816b0:	4664      	mov	r4, ip
   816b2:	2310      	movs	r3, #16
   816b4:	4684      	mov	ip, r0
   816b6:	e007      	b.n	816c8 <_vfiprintf_r+0x898>
   816b8:	f101 0e02 	add.w	lr, r1, #2
   816bc:	4601      	mov	r1, r0
   816be:	f10c 0c08 	add.w	ip, ip, #8
   816c2:	3f10      	subs	r7, #16
   816c4:	2f10      	cmp	r7, #16
   816c6:	dd11      	ble.n	816ec <_vfiprintf_r+0x8bc>
   816c8:	1c48      	adds	r0, r1, #1
   816ca:	3210      	adds	r2, #16
   816cc:	2807      	cmp	r0, #7
   816ce:	920f      	str	r2, [sp, #60]	; 0x3c
   816d0:	f8cc 5000 	str.w	r5, [ip]
   816d4:	f8cc 3004 	str.w	r3, [ip, #4]
   816d8:	900e      	str	r0, [sp, #56]	; 0x38
   816da:	dded      	ble.n	816b8 <_vfiprintf_r+0x888>
   816dc:	b9c2      	cbnz	r2, 81710 <_vfiprintf_r+0x8e0>
   816de:	3f10      	subs	r7, #16
   816e0:	2f10      	cmp	r7, #16
   816e2:	f04f 0e01 	mov.w	lr, #1
   816e6:	4611      	mov	r1, r2
   816e8:	46d4      	mov	ip, sl
   816ea:	dced      	bgt.n	816c8 <_vfiprintf_r+0x898>
   816ec:	4663      	mov	r3, ip
   816ee:	46a4      	mov	ip, r4
   816f0:	461c      	mov	r4, r3
   816f2:	443a      	add	r2, r7
   816f4:	f1be 0f07 	cmp.w	lr, #7
   816f8:	920f      	str	r2, [sp, #60]	; 0x3c
   816fa:	e884 00a0 	stmia.w	r4, {r5, r7}
   816fe:	f8cd e038 	str.w	lr, [sp, #56]	; 0x38
   81702:	f300 80ee 	bgt.w	818e2 <_vfiprintf_r+0xab2>
   81706:	3408      	adds	r4, #8
   81708:	f10e 0001 	add.w	r0, lr, #1
   8170c:	4671      	mov	r1, lr
   8170e:	e6f1      	b.n	814f4 <_vfiprintf_r+0x6c4>
   81710:	9801      	ldr	r0, [sp, #4]
   81712:	9900      	ldr	r1, [sp, #0]
   81714:	aa0d      	add	r2, sp, #52	; 0x34
   81716:	9305      	str	r3, [sp, #20]
   81718:	f7ff fb4e 	bl	80db8 <__sprint_r.part.0>
   8171c:	2800      	cmp	r0, #0
   8171e:	f47f af4a 	bne.w	815b6 <_vfiprintf_r+0x786>
   81722:	990e      	ldr	r1, [sp, #56]	; 0x38
   81724:	46d4      	mov	ip, sl
   81726:	9a0f      	ldr	r2, [sp, #60]	; 0x3c
   81728:	f101 0e01 	add.w	lr, r1, #1
   8172c:	9b05      	ldr	r3, [sp, #20]
   8172e:	e7c8      	b.n	816c2 <_vfiprintf_r+0x892>
   81730:	2a00      	cmp	r2, #0
   81732:	f040 80c5 	bne.w	818c0 <_vfiprintf_r+0xa90>
   81736:	9b05      	ldr	r3, [sp, #20]
   81738:	2b00      	cmp	r3, #0
   8173a:	f000 8085 	beq.w	81848 <_vfiprintf_r+0xa18>
   8173e:	aa0c      	add	r2, sp, #48	; 0x30
   81740:	2302      	movs	r3, #2
   81742:	921a      	str	r2, [sp, #104]	; 0x68
   81744:	4608      	mov	r0, r1
   81746:	931b      	str	r3, [sp, #108]	; 0x6c
   81748:	461a      	mov	r2, r3
   8174a:	4654      	mov	r4, sl
   8174c:	e6cb      	b.n	814e6 <_vfiprintf_r+0x6b6>
   8174e:	2a00      	cmp	r2, #0
   81750:	f040 80a5 	bne.w	8189e <_vfiprintf_r+0xa6e>
   81754:	2001      	movs	r0, #1
   81756:	4611      	mov	r1, r2
   81758:	4654      	mov	r4, sl
   8175a:	e6c7      	b.n	814ec <_vfiprintf_r+0x6bc>
   8175c:	bb03      	cbnz	r3, 817a0 <_vfiprintf_r+0x970>
   8175e:	f018 0f01 	tst.w	r8, #1
   81762:	d01d      	beq.n	817a0 <_vfiprintf_r+0x970>
   81764:	ab2a      	add	r3, sp, #168	; 0xa8
   81766:	2230      	movs	r2, #48	; 0x30
   81768:	f803 2d41 	strb.w	r2, [r3, #-65]!
   8176c:	ebc3 090a 	rsb	r9, r3, sl
   81770:	9307      	str	r3, [sp, #28]
   81772:	e48f      	b.n	81094 <_vfiprintf_r+0x264>
   81774:	46d1      	mov	r9, sl
   81776:	9809      	ldr	r0, [sp, #36]	; 0x24
   81778:	0933      	lsrs	r3, r6, #4
   8177a:	ea43 7307 	orr.w	r3, r3, r7, lsl #28
   8177e:	0939      	lsrs	r1, r7, #4
   81780:	f006 020f 	and.w	r2, r6, #15
   81784:	460f      	mov	r7, r1
   81786:	461e      	mov	r6, r3
   81788:	5c83      	ldrb	r3, [r0, r2]
   8178a:	f809 3d01 	strb.w	r3, [r9, #-1]!
   8178e:	ea56 0307 	orrs.w	r3, r6, r7
   81792:	d1f1      	bne.n	81778 <_vfiprintf_r+0x948>
   81794:	464b      	mov	r3, r9
   81796:	f8cd 901c 	str.w	r9, [sp, #28]
   8179a:	ebc3 090a 	rsb	r9, r3, sl
   8179e:	e479      	b.n	81094 <_vfiprintf_r+0x264>
   817a0:	f8cd a01c 	str.w	sl, [sp, #28]
   817a4:	e476      	b.n	81094 <_vfiprintf_r+0x264>
   817a6:	2302      	movs	r3, #2
   817a8:	e445      	b.n	81036 <_vfiprintf_r+0x206>
   817aa:	bf00      	nop
   817ac:	00083b2c 	.word	0x00083b2c
   817b0:	00083b6c 	.word	0x00083b6c
   817b4:	2a00      	cmp	r2, #0
   817b6:	f040 80d5 	bne.w	81964 <_vfiprintf_r+0xb34>
   817ba:	f89d 302f 	ldrb.w	r3, [sp, #47]	; 0x2f
   817be:	2b00      	cmp	r3, #0
   817c0:	f000 80ac 	beq.w	8191c <_vfiprintf_r+0xaec>
   817c4:	2301      	movs	r3, #1
   817c6:	f10d 012f 	add.w	r1, sp, #47	; 0x2f
   817ca:	4618      	mov	r0, r3
   817cc:	931b      	str	r3, [sp, #108]	; 0x6c
   817ce:	461a      	mov	r2, r3
   817d0:	911a      	str	r1, [sp, #104]	; 0x68
   817d2:	4654      	mov	r4, sl
   817d4:	e678      	b.n	814c8 <_vfiprintf_r+0x698>
   817d6:	9a03      	ldr	r2, [sp, #12]
   817d8:	1b95      	subs	r5, r2, r6
   817da:	2d00      	cmp	r5, #0
   817dc:	4652      	mov	r2, sl
   817de:	f73f af09 	bgt.w	815f4 <_vfiprintf_r+0x7c4>
   817e2:	e6c8      	b.n	81576 <_vfiprintf_r+0x746>
   817e4:	465d      	mov	r5, fp
   817e6:	f7ff bb7c 	b.w	80ee2 <_vfiprintf_r+0xb2>
   817ea:	9801      	ldr	r0, [sp, #4]
   817ec:	9900      	ldr	r1, [sp, #0]
   817ee:	aa0d      	add	r2, sp, #52	; 0x34
   817f0:	f7ff fae2 	bl	80db8 <__sprint_r.part.0>
   817f4:	2800      	cmp	r0, #0
   817f6:	f47f aede 	bne.w	815b6 <_vfiprintf_r+0x786>
   817fa:	4652      	mov	r2, sl
   817fc:	9b0f      	ldr	r3, [sp, #60]	; 0x3c
   817fe:	e6f2      	b.n	815e6 <_vfiprintf_r+0x7b6>
   81800:	9904      	ldr	r1, [sp, #16]
   81802:	2700      	movs	r7, #0
   81804:	460a      	mov	r2, r1
   81806:	3204      	adds	r2, #4
   81808:	680e      	ldr	r6, [r1, #0]
   8180a:	9204      	str	r2, [sp, #16]
   8180c:	e413      	b.n	81036 <_vfiprintf_r+0x206>
   8180e:	3204      	adds	r2, #4
   81810:	681e      	ldr	r6, [r3, #0]
   81812:	2700      	movs	r7, #0
   81814:	2301      	movs	r3, #1
   81816:	9204      	str	r2, [sp, #16]
   81818:	e40d      	b.n	81036 <_vfiprintf_r+0x206>
   8181a:	6816      	ldr	r6, [r2, #0]
   8181c:	3204      	adds	r2, #4
   8181e:	9204      	str	r2, [sp, #16]
   81820:	2700      	movs	r7, #0
   81822:	e52d      	b.n	81280 <_vfiprintf_r+0x450>
   81824:	681e      	ldr	r6, [r3, #0]
   81826:	3304      	adds	r3, #4
   81828:	17f7      	asrs	r7, r6, #31
   8182a:	9304      	str	r3, [sp, #16]
   8182c:	4632      	mov	r2, r6
   8182e:	463b      	mov	r3, r7
   81830:	e4c1      	b.n	811b6 <_vfiprintf_r+0x386>
   81832:	9801      	ldr	r0, [sp, #4]
   81834:	9900      	ldr	r1, [sp, #0]
   81836:	aa0d      	add	r2, sp, #52	; 0x34
   81838:	f7ff fabe 	bl	80db8 <__sprint_r.part.0>
   8183c:	2800      	cmp	r0, #0
   8183e:	f47f aeba 	bne.w	815b6 <_vfiprintf_r+0x786>
   81842:	4654      	mov	r4, sl
   81844:	f7ff bbc0 	b.w	80fc8 <_vfiprintf_r+0x198>
   81848:	4608      	mov	r0, r1
   8184a:	4654      	mov	r4, sl
   8184c:	4611      	mov	r1, r2
   8184e:	e64d      	b.n	814ec <_vfiprintf_r+0x6bc>
   81850:	46d1      	mov	r9, sl
   81852:	f8cd c014 	str.w	ip, [sp, #20]
   81856:	4630      	mov	r0, r6
   81858:	4639      	mov	r1, r7
   8185a:	220a      	movs	r2, #10
   8185c:	2300      	movs	r3, #0
   8185e:	f001 fe75 	bl	8354c <__aeabi_uldivmod>
   81862:	3230      	adds	r2, #48	; 0x30
   81864:	4630      	mov	r0, r6
   81866:	4639      	mov	r1, r7
   81868:	f809 2d01 	strb.w	r2, [r9, #-1]!
   8186c:	2300      	movs	r3, #0
   8186e:	220a      	movs	r2, #10
   81870:	f001 fe6c 	bl	8354c <__aeabi_uldivmod>
   81874:	4606      	mov	r6, r0
   81876:	460f      	mov	r7, r1
   81878:	ea56 0307 	orrs.w	r3, r6, r7
   8187c:	d1eb      	bne.n	81856 <_vfiprintf_r+0xa26>
   8187e:	f8dd c014 	ldr.w	ip, [sp, #20]
   81882:	e787      	b.n	81794 <_vfiprintf_r+0x964>
   81884:	2b30      	cmp	r3, #48	; 0x30
   81886:	9b07      	ldr	r3, [sp, #28]
   81888:	d087      	beq.n	8179a <_vfiprintf_r+0x96a>
   8188a:	3b01      	subs	r3, #1
   8188c:	461a      	mov	r2, r3
   8188e:	9307      	str	r3, [sp, #28]
   81890:	2330      	movs	r3, #48	; 0x30
   81892:	ebc2 090a 	rsb	r9, r2, sl
   81896:	f801 3c01 	strb.w	r3, [r1, #-1]
   8189a:	f7ff bbfb 	b.w	81094 <_vfiprintf_r+0x264>
   8189e:	9801      	ldr	r0, [sp, #4]
   818a0:	9900      	ldr	r1, [sp, #0]
   818a2:	aa0d      	add	r2, sp, #52	; 0x34
   818a4:	f8cd c014 	str.w	ip, [sp, #20]
   818a8:	f7ff fa86 	bl	80db8 <__sprint_r.part.0>
   818ac:	2800      	cmp	r0, #0
   818ae:	f47f ae82 	bne.w	815b6 <_vfiprintf_r+0x786>
   818b2:	990e      	ldr	r1, [sp, #56]	; 0x38
   818b4:	4654      	mov	r4, sl
   818b6:	9a0f      	ldr	r2, [sp, #60]	; 0x3c
   818b8:	1c48      	adds	r0, r1, #1
   818ba:	f8dd c014 	ldr.w	ip, [sp, #20]
   818be:	e615      	b.n	814ec <_vfiprintf_r+0x6bc>
   818c0:	9801      	ldr	r0, [sp, #4]
   818c2:	9900      	ldr	r1, [sp, #0]
   818c4:	aa0d      	add	r2, sp, #52	; 0x34
   818c6:	f8cd c020 	str.w	ip, [sp, #32]
   818ca:	f7ff fa75 	bl	80db8 <__sprint_r.part.0>
   818ce:	2800      	cmp	r0, #0
   818d0:	f47f ae71 	bne.w	815b6 <_vfiprintf_r+0x786>
   818d4:	990e      	ldr	r1, [sp, #56]	; 0x38
   818d6:	4654      	mov	r4, sl
   818d8:	9a0f      	ldr	r2, [sp, #60]	; 0x3c
   818da:	1c48      	adds	r0, r1, #1
   818dc:	f8dd c020 	ldr.w	ip, [sp, #32]
   818e0:	e5f5      	b.n	814ce <_vfiprintf_r+0x69e>
   818e2:	2a00      	cmp	r2, #0
   818e4:	d167      	bne.n	819b6 <_vfiprintf_r+0xb86>
   818e6:	2001      	movs	r0, #1
   818e8:	4611      	mov	r1, r2
   818ea:	4654      	mov	r4, sl
   818ec:	e602      	b.n	814f4 <_vfiprintf_r+0x6c4>
   818ee:	9801      	ldr	r0, [sp, #4]
   818f0:	9900      	ldr	r1, [sp, #0]
   818f2:	aa0d      	add	r2, sp, #52	; 0x34
   818f4:	f7ff fa60 	bl	80db8 <__sprint_r.part.0>
   818f8:	2800      	cmp	r0, #0
   818fa:	f47f ae5c 	bne.w	815b6 <_vfiprintf_r+0x786>
   818fe:	980e      	ldr	r0, [sp, #56]	; 0x38
   81900:	4654      	mov	r4, sl
   81902:	9a0f      	ldr	r2, [sp, #60]	; 0x3c
   81904:	3001      	adds	r0, #1
   81906:	e625      	b.n	81554 <_vfiprintf_r+0x724>
   81908:	252d      	movs	r5, #45	; 0x2d
   8190a:	4276      	negs	r6, r6
   8190c:	eb67 0747 	sbc.w	r7, r7, r7, lsl #1
   81910:	f88d 502f 	strb.w	r5, [sp, #47]	; 0x2f
   81914:	46e1      	mov	r9, ip
   81916:	2301      	movs	r3, #1
   81918:	f7ff bb93 	b.w	81042 <_vfiprintf_r+0x212>
   8191c:	9b05      	ldr	r3, [sp, #20]
   8191e:	4611      	mov	r1, r2
   81920:	2001      	movs	r0, #1
   81922:	4654      	mov	r4, sl
   81924:	2b00      	cmp	r3, #0
   81926:	f43f ade5 	beq.w	814f4 <_vfiprintf_r+0x6c4>
   8192a:	aa0c      	add	r2, sp, #48	; 0x30
   8192c:	2302      	movs	r3, #2
   8192e:	e88a 000c 	stmia.w	sl, {r2, r3}
   81932:	461a      	mov	r2, r3
   81934:	e5d7      	b.n	814e6 <_vfiprintf_r+0x6b6>
   81936:	f018 0f10 	tst.w	r8, #16
   8193a:	d10b      	bne.n	81954 <_vfiprintf_r+0xb24>
   8193c:	f018 0f40 	tst.w	r8, #64	; 0x40
   81940:	d008      	beq.n	81954 <_vfiprintf_r+0xb24>
   81942:	9a04      	ldr	r2, [sp, #16]
   81944:	6813      	ldr	r3, [r2, #0]
   81946:	3204      	adds	r2, #4
   81948:	9204      	str	r2, [sp, #16]
   8194a:	f8bd 2008 	ldrh.w	r2, [sp, #8]
   8194e:	801a      	strh	r2, [r3, #0]
   81950:	f7ff baa0 	b.w	80e94 <_vfiprintf_r+0x64>
   81954:	9a04      	ldr	r2, [sp, #16]
   81956:	6813      	ldr	r3, [r2, #0]
   81958:	3204      	adds	r2, #4
   8195a:	9204      	str	r2, [sp, #16]
   8195c:	9a02      	ldr	r2, [sp, #8]
   8195e:	601a      	str	r2, [r3, #0]
   81960:	f7ff ba98 	b.w	80e94 <_vfiprintf_r+0x64>
   81964:	9801      	ldr	r0, [sp, #4]
   81966:	9900      	ldr	r1, [sp, #0]
   81968:	aa0d      	add	r2, sp, #52	; 0x34
   8196a:	f8cd c020 	str.w	ip, [sp, #32]
   8196e:	f7ff fa23 	bl	80db8 <__sprint_r.part.0>
   81972:	2800      	cmp	r0, #0
   81974:	f47f ae1f 	bne.w	815b6 <_vfiprintf_r+0x786>
   81978:	990e      	ldr	r1, [sp, #56]	; 0x38
   8197a:	4654      	mov	r4, sl
   8197c:	9a0f      	ldr	r2, [sp, #60]	; 0x3c
   8197e:	1c48      	adds	r0, r1, #1
   81980:	f8dd c020 	ldr.w	ip, [sp, #32]
   81984:	e592      	b.n	814ac <_vfiprintf_r+0x67c>
   81986:	f048 0820 	orr.w	r8, r8, #32
   8198a:	f10b 0001 	add.w	r0, fp, #1
   8198e:	f89b 3001 	ldrb.w	r3, [fp, #1]
   81992:	f7ff bab6 	b.w	80f02 <_vfiprintf_r+0xd2>
   81996:	426d      	negs	r5, r5
   81998:	9304      	str	r3, [sp, #16]
   8199a:	4658      	mov	r0, fp
   8199c:	f7ff bbc8 	b.w	81130 <_vfiprintf_r+0x300>
   819a0:	9807      	ldr	r0, [sp, #28]
   819a2:	9504      	str	r5, [sp, #16]
   819a4:	f001 fc10 	bl	831c8 <strlen>
   819a8:	f89d 502f 	ldrb.w	r5, [sp, #47]	; 0x2f
   819ac:	4681      	mov	r9, r0
   819ae:	f04f 0c00 	mov.w	ip, #0
   819b2:	f7ff bb6f 	b.w	81094 <_vfiprintf_r+0x264>
   819b6:	9801      	ldr	r0, [sp, #4]
   819b8:	9900      	ldr	r1, [sp, #0]
   819ba:	aa0d      	add	r2, sp, #52	; 0x34
   819bc:	f8cd c014 	str.w	ip, [sp, #20]
   819c0:	f7ff f9fa 	bl	80db8 <__sprint_r.part.0>
   819c4:	2800      	cmp	r0, #0
   819c6:	f47f adf6 	bne.w	815b6 <_vfiprintf_r+0x786>
   819ca:	990e      	ldr	r1, [sp, #56]	; 0x38
   819cc:	4654      	mov	r4, sl
   819ce:	9a0f      	ldr	r2, [sp, #60]	; 0x3c
   819d0:	1c48      	adds	r0, r1, #1
   819d2:	f8dd c014 	ldr.w	ip, [sp, #20]
   819d6:	e58d      	b.n	814f4 <_vfiprintf_r+0x6c4>
   819d8:	990e      	ldr	r1, [sp, #56]	; 0x38
   819da:	9a0f      	ldr	r2, [sp, #60]	; 0x3c
   819dc:	3101      	adds	r1, #1
   819de:	4f15      	ldr	r7, [pc, #84]	; (81a34 <_vfiprintf_r+0xc04>)
   819e0:	f7ff bb9a 	b.w	81118 <_vfiprintf_r+0x2e8>
   819e4:	2e06      	cmp	r6, #6
   819e6:	4b14      	ldr	r3, [pc, #80]	; (81a38 <_vfiprintf_r+0xc08>)
   819e8:	bf28      	it	cs
   819ea:	f04f 0c06 	movcs.w	ip, #6
   819ee:	46e1      	mov	r9, ip
   819f0:	9504      	str	r5, [sp, #16]
   819f2:	ea2c 76ec 	bic.w	r6, ip, ip, asr #31
   819f6:	9307      	str	r3, [sp, #28]
   819f8:	e463      	b.n	812c2 <_vfiprintf_r+0x492>
   819fa:	990e      	ldr	r1, [sp, #56]	; 0x38
   819fc:	4f0d      	ldr	r7, [pc, #52]	; (81a34 <_vfiprintf_r+0xc04>)
   819fe:	f101 0e01 	add.w	lr, r1, #1
   81a02:	e61a      	b.n	8163a <_vfiprintf_r+0x80a>
   81a04:	46e1      	mov	r9, ip
   81a06:	9504      	str	r5, [sp, #16]
   81a08:	4684      	mov	ip, r0
   81a0a:	f89d 502f 	ldrb.w	r5, [sp, #47]	; 0x2f
   81a0e:	f7ff bb41 	b.w	81094 <_vfiprintf_r+0x264>
   81a12:	4686      	mov	lr, r0
   81a14:	4d09      	ldr	r5, [pc, #36]	; (81a3c <_vfiprintf_r+0xc0c>)
   81a16:	e66c      	b.n	816f2 <_vfiprintf_r+0x8c2>
   81a18:	9a04      	ldr	r2, [sp, #16]
   81a1a:	f89b 3001 	ldrb.w	r3, [fp, #1]
   81a1e:	6816      	ldr	r6, [r2, #0]
   81a20:	3204      	adds	r2, #4
   81a22:	2e00      	cmp	r6, #0
   81a24:	9204      	str	r2, [sp, #16]
   81a26:	f6bf aa6c 	bge.w	80f02 <_vfiprintf_r+0xd2>
   81a2a:	f04f 36ff 	mov.w	r6, #4294967295
   81a2e:	f7ff ba68 	b.w	80f02 <_vfiprintf_r+0xd2>
   81a32:	bf00      	nop
   81a34:	00083b6c 	.word	0x00083b6c
   81a38:	00083b64 	.word	0x00083b64
   81a3c:	00083b2c 	.word	0x00083b2c

00081a40 <__sbprintf>:
   81a40:	e92d 45f0 	stmdb	sp!, {r4, r5, r6, r7, r8, sl, lr}
   81a44:	4688      	mov	r8, r1
   81a46:	6e4f      	ldr	r7, [r1, #100]	; 0x64
   81a48:	f2ad 4d6c 	subw	sp, sp, #1132	; 0x46c
   81a4c:	9719      	str	r7, [sp, #100]	; 0x64
   81a4e:	f8d8 701c 	ldr.w	r7, [r8, #28]
   81a52:	f8b1 e00c 	ldrh.w	lr, [r1, #12]
   81a56:	f8b1 a00e 	ldrh.w	sl, [r1, #14]
   81a5a:	9707      	str	r7, [sp, #28]
   81a5c:	f8d8 7024 	ldr.w	r7, [r8, #36]	; 0x24
   81a60:	ac1a      	add	r4, sp, #104	; 0x68
   81a62:	f44f 6580 	mov.w	r5, #1024	; 0x400
   81a66:	f02e 0e02 	bic.w	lr, lr, #2
   81a6a:	2600      	movs	r6, #0
   81a6c:	4669      	mov	r1, sp
   81a6e:	9400      	str	r4, [sp, #0]
   81a70:	9404      	str	r4, [sp, #16]
   81a72:	9502      	str	r5, [sp, #8]
   81a74:	9505      	str	r5, [sp, #20]
   81a76:	f8ad e00c 	strh.w	lr, [sp, #12]
   81a7a:	f8ad a00e 	strh.w	sl, [sp, #14]
   81a7e:	9709      	str	r7, [sp, #36]	; 0x24
   81a80:	9606      	str	r6, [sp, #24]
   81a82:	4605      	mov	r5, r0
   81a84:	f7ff f9d4 	bl	80e30 <_vfiprintf_r>
   81a88:	1e04      	subs	r4, r0, #0
   81a8a:	db07      	blt.n	81a9c <__sbprintf+0x5c>
   81a8c:	4628      	mov	r0, r5
   81a8e:	4669      	mov	r1, sp
   81a90:	f000 f92a 	bl	81ce8 <_fflush_r>
   81a94:	42b0      	cmp	r0, r6
   81a96:	bf18      	it	ne
   81a98:	f04f 34ff 	movne.w	r4, #4294967295
   81a9c:	f8bd 300c 	ldrh.w	r3, [sp, #12]
   81aa0:	065b      	lsls	r3, r3, #25
   81aa2:	d505      	bpl.n	81ab0 <__sbprintf+0x70>
   81aa4:	f8b8 300c 	ldrh.w	r3, [r8, #12]
   81aa8:	f043 0340 	orr.w	r3, r3, #64	; 0x40
   81aac:	f8a8 300c 	strh.w	r3, [r8, #12]
   81ab0:	4620      	mov	r0, r4
   81ab2:	f20d 4d6c 	addw	sp, sp, #1132	; 0x46c
   81ab6:	e8bd 85f0 	ldmia.w	sp!, {r4, r5, r6, r7, r8, sl, pc}
   81aba:	bf00      	nop

00081abc <__swsetup_r>:
   81abc:	b538      	push	{r3, r4, r5, lr}
   81abe:	4b2f      	ldr	r3, [pc, #188]	; (81b7c <__swsetup_r+0xc0>)
   81ac0:	4605      	mov	r5, r0
   81ac2:	6818      	ldr	r0, [r3, #0]
   81ac4:	460c      	mov	r4, r1
   81ac6:	b110      	cbz	r0, 81ace <__swsetup_r+0x12>
   81ac8:	6b83      	ldr	r3, [r0, #56]	; 0x38
   81aca:	2b00      	cmp	r3, #0
   81acc:	d036      	beq.n	81b3c <__swsetup_r+0x80>
   81ace:	89a2      	ldrh	r2, [r4, #12]
   81ad0:	b293      	uxth	r3, r2
   81ad2:	0718      	lsls	r0, r3, #28
   81ad4:	d50c      	bpl.n	81af0 <__swsetup_r+0x34>
   81ad6:	6920      	ldr	r0, [r4, #16]
   81ad8:	b1a8      	cbz	r0, 81b06 <__swsetup_r+0x4a>
   81ada:	f013 0201 	ands.w	r2, r3, #1
   81ade:	d01e      	beq.n	81b1e <__swsetup_r+0x62>
   81ae0:	6963      	ldr	r3, [r4, #20]
   81ae2:	2200      	movs	r2, #0
   81ae4:	425b      	negs	r3, r3
   81ae6:	61a3      	str	r3, [r4, #24]
   81ae8:	60a2      	str	r2, [r4, #8]
   81aea:	b1f0      	cbz	r0, 81b2a <__swsetup_r+0x6e>
   81aec:	2000      	movs	r0, #0
   81aee:	bd38      	pop	{r3, r4, r5, pc}
   81af0:	06d9      	lsls	r1, r3, #27
   81af2:	d53a      	bpl.n	81b6a <__swsetup_r+0xae>
   81af4:	0758      	lsls	r0, r3, #29
   81af6:	d424      	bmi.n	81b42 <__swsetup_r+0x86>
   81af8:	6920      	ldr	r0, [r4, #16]
   81afa:	f042 0308 	orr.w	r3, r2, #8
   81afe:	81a3      	strh	r3, [r4, #12]
   81b00:	b29b      	uxth	r3, r3
   81b02:	2800      	cmp	r0, #0
   81b04:	d1e9      	bne.n	81ada <__swsetup_r+0x1e>
   81b06:	f403 7220 	and.w	r2, r3, #640	; 0x280
   81b0a:	f5b2 7f00 	cmp.w	r2, #512	; 0x200
   81b0e:	d0e4      	beq.n	81ada <__swsetup_r+0x1e>
   81b10:	4628      	mov	r0, r5
   81b12:	4621      	mov	r1, r4
   81b14:	f000 fcee 	bl	824f4 <__smakebuf_r>
   81b18:	89a3      	ldrh	r3, [r4, #12]
   81b1a:	6920      	ldr	r0, [r4, #16]
   81b1c:	e7dd      	b.n	81ada <__swsetup_r+0x1e>
   81b1e:	0799      	lsls	r1, r3, #30
   81b20:	bf58      	it	pl
   81b22:	6962      	ldrpl	r2, [r4, #20]
   81b24:	60a2      	str	r2, [r4, #8]
   81b26:	2800      	cmp	r0, #0
   81b28:	d1e0      	bne.n	81aec <__swsetup_r+0x30>
   81b2a:	89a3      	ldrh	r3, [r4, #12]
   81b2c:	061a      	lsls	r2, r3, #24
   81b2e:	d5de      	bpl.n	81aee <__swsetup_r+0x32>
   81b30:	f043 0340 	orr.w	r3, r3, #64	; 0x40
   81b34:	81a3      	strh	r3, [r4, #12]
   81b36:	f04f 30ff 	mov.w	r0, #4294967295
   81b3a:	bd38      	pop	{r3, r4, r5, pc}
   81b3c:	f000 f968 	bl	81e10 <__sinit>
   81b40:	e7c5      	b.n	81ace <__swsetup_r+0x12>
   81b42:	6b21      	ldr	r1, [r4, #48]	; 0x30
   81b44:	b149      	cbz	r1, 81b5a <__swsetup_r+0x9e>
   81b46:	f104 0340 	add.w	r3, r4, #64	; 0x40
   81b4a:	4299      	cmp	r1, r3
   81b4c:	d003      	beq.n	81b56 <__swsetup_r+0x9a>
   81b4e:	4628      	mov	r0, r5
   81b50:	f000 fa36 	bl	81fc0 <_free_r>
   81b54:	89a2      	ldrh	r2, [r4, #12]
   81b56:	2300      	movs	r3, #0
   81b58:	6323      	str	r3, [r4, #48]	; 0x30
   81b5a:	6920      	ldr	r0, [r4, #16]
   81b5c:	f022 0224 	bic.w	r2, r2, #36	; 0x24
   81b60:	2300      	movs	r3, #0
   81b62:	b292      	uxth	r2, r2
   81b64:	e884 0009 	stmia.w	r4, {r0, r3}
   81b68:	e7c7      	b.n	81afa <__swsetup_r+0x3e>
   81b6a:	f042 0240 	orr.w	r2, r2, #64	; 0x40
   81b6e:	2309      	movs	r3, #9
   81b70:	602b      	str	r3, [r5, #0]
   81b72:	f04f 30ff 	mov.w	r0, #4294967295
   81b76:	81a2      	strh	r2, [r4, #12]
   81b78:	bd38      	pop	{r3, r4, r5, pc}
   81b7a:	bf00      	nop
   81b7c:	20070520 	.word	0x20070520

00081b80 <register_fini>:
   81b80:	4b02      	ldr	r3, [pc, #8]	; (81b8c <register_fini+0xc>)
   81b82:	b113      	cbz	r3, 81b8a <register_fini+0xa>
   81b84:	4802      	ldr	r0, [pc, #8]	; (81b90 <register_fini+0x10>)
   81b86:	f000 b805 	b.w	81b94 <atexit>
   81b8a:	4770      	bx	lr
   81b8c:	00000000 	.word	0x00000000
   81b90:	00081e25 	.word	0x00081e25

00081b94 <atexit>:
   81b94:	4601      	mov	r1, r0
   81b96:	2000      	movs	r0, #0
   81b98:	4602      	mov	r2, r0
   81b9a:	4603      	mov	r3, r0
   81b9c:	f001 bbe2 	b.w	83364 <__register_exitproc>

00081ba0 <__sflush_r>:
   81ba0:	898b      	ldrh	r3, [r1, #12]
   81ba2:	e92d 41f0 	stmdb	sp!, {r4, r5, r6, r7, r8, lr}
   81ba6:	b29a      	uxth	r2, r3
   81ba8:	460d      	mov	r5, r1
   81baa:	0711      	lsls	r1, r2, #28
   81bac:	4680      	mov	r8, r0
   81bae:	d43c      	bmi.n	81c2a <__sflush_r+0x8a>
   81bb0:	686a      	ldr	r2, [r5, #4]
   81bb2:	f443 6300 	orr.w	r3, r3, #2048	; 0x800
   81bb6:	2a00      	cmp	r2, #0
   81bb8:	81ab      	strh	r3, [r5, #12]
   81bba:	dd65      	ble.n	81c88 <__sflush_r+0xe8>
   81bbc:	6aae      	ldr	r6, [r5, #40]	; 0x28
   81bbe:	2e00      	cmp	r6, #0
   81bc0:	d04b      	beq.n	81c5a <__sflush_r+0xba>
   81bc2:	b29b      	uxth	r3, r3
   81bc4:	f403 5280 	and.w	r2, r3, #4096	; 0x1000
   81bc8:	2100      	movs	r1, #0
   81bca:	b292      	uxth	r2, r2
   81bcc:	f8d8 4000 	ldr.w	r4, [r8]
   81bd0:	f8c8 1000 	str.w	r1, [r8]
   81bd4:	2a00      	cmp	r2, #0
   81bd6:	d05b      	beq.n	81c90 <__sflush_r+0xf0>
   81bd8:	6d2a      	ldr	r2, [r5, #80]	; 0x50
   81bda:	075f      	lsls	r7, r3, #29
   81bdc:	d505      	bpl.n	81bea <__sflush_r+0x4a>
   81bde:	6869      	ldr	r1, [r5, #4]
   81be0:	6b2b      	ldr	r3, [r5, #48]	; 0x30
   81be2:	1a52      	subs	r2, r2, r1
   81be4:	b10b      	cbz	r3, 81bea <__sflush_r+0x4a>
   81be6:	6beb      	ldr	r3, [r5, #60]	; 0x3c
   81be8:	1ad2      	subs	r2, r2, r3
   81bea:	4640      	mov	r0, r8
   81bec:	69e9      	ldr	r1, [r5, #28]
   81bee:	2300      	movs	r3, #0
   81bf0:	47b0      	blx	r6
   81bf2:	1c46      	adds	r6, r0, #1
   81bf4:	d056      	beq.n	81ca4 <__sflush_r+0x104>
   81bf6:	89ab      	ldrh	r3, [r5, #12]
   81bf8:	692a      	ldr	r2, [r5, #16]
   81bfa:	f423 6300 	bic.w	r3, r3, #2048	; 0x800
   81bfe:	b29b      	uxth	r3, r3
   81c00:	2100      	movs	r1, #0
   81c02:	602a      	str	r2, [r5, #0]
   81c04:	04da      	lsls	r2, r3, #19
   81c06:	81ab      	strh	r3, [r5, #12]
   81c08:	6069      	str	r1, [r5, #4]
   81c0a:	d43b      	bmi.n	81c84 <__sflush_r+0xe4>
   81c0c:	6b29      	ldr	r1, [r5, #48]	; 0x30
   81c0e:	f8c8 4000 	str.w	r4, [r8]
   81c12:	b311      	cbz	r1, 81c5a <__sflush_r+0xba>
   81c14:	f105 0340 	add.w	r3, r5, #64	; 0x40
   81c18:	4299      	cmp	r1, r3
   81c1a:	d002      	beq.n	81c22 <__sflush_r+0x82>
   81c1c:	4640      	mov	r0, r8
   81c1e:	f000 f9cf 	bl	81fc0 <_free_r>
   81c22:	2000      	movs	r0, #0
   81c24:	6328      	str	r0, [r5, #48]	; 0x30
   81c26:	e8bd 81f0 	ldmia.w	sp!, {r4, r5, r6, r7, r8, pc}
   81c2a:	692e      	ldr	r6, [r5, #16]
   81c2c:	b1ae      	cbz	r6, 81c5a <__sflush_r+0xba>
   81c2e:	0791      	lsls	r1, r2, #30
   81c30:	682c      	ldr	r4, [r5, #0]
   81c32:	bf0c      	ite	eq
   81c34:	696b      	ldreq	r3, [r5, #20]
   81c36:	2300      	movne	r3, #0
   81c38:	602e      	str	r6, [r5, #0]
   81c3a:	1ba4      	subs	r4, r4, r6
   81c3c:	60ab      	str	r3, [r5, #8]
   81c3e:	e00a      	b.n	81c56 <__sflush_r+0xb6>
   81c40:	4632      	mov	r2, r6
   81c42:	4623      	mov	r3, r4
   81c44:	6a6f      	ldr	r7, [r5, #36]	; 0x24
   81c46:	4640      	mov	r0, r8
   81c48:	69e9      	ldr	r1, [r5, #28]
   81c4a:	47b8      	blx	r7
   81c4c:	2800      	cmp	r0, #0
   81c4e:	eba4 0400 	sub.w	r4, r4, r0
   81c52:	4406      	add	r6, r0
   81c54:	dd04      	ble.n	81c60 <__sflush_r+0xc0>
   81c56:	2c00      	cmp	r4, #0
   81c58:	dcf2      	bgt.n	81c40 <__sflush_r+0xa0>
   81c5a:	2000      	movs	r0, #0
   81c5c:	e8bd 81f0 	ldmia.w	sp!, {r4, r5, r6, r7, r8, pc}
   81c60:	89ab      	ldrh	r3, [r5, #12]
   81c62:	f04f 30ff 	mov.w	r0, #4294967295
   81c66:	f043 0340 	orr.w	r3, r3, #64	; 0x40
   81c6a:	81ab      	strh	r3, [r5, #12]
   81c6c:	e8bd 81f0 	ldmia.w	sp!, {r4, r5, r6, r7, r8, pc}
   81c70:	89ab      	ldrh	r3, [r5, #12]
   81c72:	692a      	ldr	r2, [r5, #16]
   81c74:	f423 6300 	bic.w	r3, r3, #2048	; 0x800
   81c78:	b29b      	uxth	r3, r3
   81c7a:	81ab      	strh	r3, [r5, #12]
   81c7c:	04db      	lsls	r3, r3, #19
   81c7e:	6069      	str	r1, [r5, #4]
   81c80:	602a      	str	r2, [r5, #0]
   81c82:	d5c3      	bpl.n	81c0c <__sflush_r+0x6c>
   81c84:	6528      	str	r0, [r5, #80]	; 0x50
   81c86:	e7c1      	b.n	81c0c <__sflush_r+0x6c>
   81c88:	6bea      	ldr	r2, [r5, #60]	; 0x3c
   81c8a:	2a00      	cmp	r2, #0
   81c8c:	dc96      	bgt.n	81bbc <__sflush_r+0x1c>
   81c8e:	e7e4      	b.n	81c5a <__sflush_r+0xba>
   81c90:	2301      	movs	r3, #1
   81c92:	4640      	mov	r0, r8
   81c94:	69e9      	ldr	r1, [r5, #28]
   81c96:	47b0      	blx	r6
   81c98:	1c43      	adds	r3, r0, #1
   81c9a:	4602      	mov	r2, r0
   81c9c:	d019      	beq.n	81cd2 <__sflush_r+0x132>
   81c9e:	89ab      	ldrh	r3, [r5, #12]
   81ca0:	6aae      	ldr	r6, [r5, #40]	; 0x28
   81ca2:	e79a      	b.n	81bda <__sflush_r+0x3a>
   81ca4:	f8d8 1000 	ldr.w	r1, [r8]
   81ca8:	2900      	cmp	r1, #0
   81caa:	d0e1      	beq.n	81c70 <__sflush_r+0xd0>
   81cac:	291d      	cmp	r1, #29
   81cae:	d007      	beq.n	81cc0 <__sflush_r+0x120>
   81cb0:	2916      	cmp	r1, #22
   81cb2:	d005      	beq.n	81cc0 <__sflush_r+0x120>
   81cb4:	89ab      	ldrh	r3, [r5, #12]
   81cb6:	f043 0340 	orr.w	r3, r3, #64	; 0x40
   81cba:	81ab      	strh	r3, [r5, #12]
   81cbc:	e8bd 81f0 	ldmia.w	sp!, {r4, r5, r6, r7, r8, pc}
   81cc0:	89ab      	ldrh	r3, [r5, #12]
   81cc2:	6929      	ldr	r1, [r5, #16]
   81cc4:	f423 6300 	bic.w	r3, r3, #2048	; 0x800
   81cc8:	2200      	movs	r2, #0
   81cca:	81ab      	strh	r3, [r5, #12]
   81ccc:	e885 0006 	stmia.w	r5, {r1, r2}
   81cd0:	e79c      	b.n	81c0c <__sflush_r+0x6c>
   81cd2:	f8d8 3000 	ldr.w	r3, [r8]
   81cd6:	2b00      	cmp	r3, #0
   81cd8:	d0e1      	beq.n	81c9e <__sflush_r+0xfe>
   81cda:	2b1d      	cmp	r3, #29
   81cdc:	d001      	beq.n	81ce2 <__sflush_r+0x142>
   81cde:	2b16      	cmp	r3, #22
   81ce0:	d1be      	bne.n	81c60 <__sflush_r+0xc0>
   81ce2:	f8c8 4000 	str.w	r4, [r8]
   81ce6:	e7b8      	b.n	81c5a <__sflush_r+0xba>

00081ce8 <_fflush_r>:
   81ce8:	b510      	push	{r4, lr}
   81cea:	4604      	mov	r4, r0
   81cec:	b082      	sub	sp, #8
   81cee:	b108      	cbz	r0, 81cf4 <_fflush_r+0xc>
   81cf0:	6b83      	ldr	r3, [r0, #56]	; 0x38
   81cf2:	b153      	cbz	r3, 81d0a <_fflush_r+0x22>
   81cf4:	f9b1 000c 	ldrsh.w	r0, [r1, #12]
   81cf8:	b908      	cbnz	r0, 81cfe <_fflush_r+0x16>
   81cfa:	b002      	add	sp, #8
   81cfc:	bd10      	pop	{r4, pc}
   81cfe:	4620      	mov	r0, r4
   81d00:	b002      	add	sp, #8
   81d02:	e8bd 4010 	ldmia.w	sp!, {r4, lr}
   81d06:	f7ff bf4b 	b.w	81ba0 <__sflush_r>
   81d0a:	9101      	str	r1, [sp, #4]
   81d0c:	f000 f880 	bl	81e10 <__sinit>
   81d10:	9901      	ldr	r1, [sp, #4]
   81d12:	e7ef      	b.n	81cf4 <_fflush_r+0xc>

00081d14 <_cleanup_r>:
   81d14:	4901      	ldr	r1, [pc, #4]	; (81d1c <_cleanup_r+0x8>)
   81d16:	f000 bbbb 	b.w	82490 <_fwalk_reent>
   81d1a:	bf00      	nop
   81d1c:	0008342d 	.word	0x0008342d

00081d20 <__sinit.part.1>:
   81d20:	e92d 4ff0 	stmdb	sp!, {r4, r5, r6, r7, r8, r9, sl, fp, lr}
   81d24:	4607      	mov	r7, r0
   81d26:	4835      	ldr	r0, [pc, #212]	; (81dfc <__sinit.part.1+0xdc>)
   81d28:	687d      	ldr	r5, [r7, #4]
   81d2a:	2400      	movs	r4, #0
   81d2c:	f507 723b 	add.w	r2, r7, #748	; 0x2ec
   81d30:	2304      	movs	r3, #4
   81d32:	2103      	movs	r1, #3
   81d34:	63f8      	str	r0, [r7, #60]	; 0x3c
   81d36:	f8c7 12e4 	str.w	r1, [r7, #740]	; 0x2e4
   81d3a:	f8c7 22e8 	str.w	r2, [r7, #744]	; 0x2e8
   81d3e:	f8c7 42e0 	str.w	r4, [r7, #736]	; 0x2e0
   81d42:	b083      	sub	sp, #12
   81d44:	602c      	str	r4, [r5, #0]
   81d46:	606c      	str	r4, [r5, #4]
   81d48:	60ac      	str	r4, [r5, #8]
   81d4a:	666c      	str	r4, [r5, #100]	; 0x64
   81d4c:	81ec      	strh	r4, [r5, #14]
   81d4e:	612c      	str	r4, [r5, #16]
   81d50:	616c      	str	r4, [r5, #20]
   81d52:	61ac      	str	r4, [r5, #24]
   81d54:	81ab      	strh	r3, [r5, #12]
   81d56:	4621      	mov	r1, r4
   81d58:	f105 005c 	add.w	r0, r5, #92	; 0x5c
   81d5c:	2208      	movs	r2, #8
   81d5e:	f7fe ff59 	bl	80c14 <memset>
   81d62:	f8df b09c 	ldr.w	fp, [pc, #156]	; 81e00 <__sinit.part.1+0xe0>
   81d66:	68be      	ldr	r6, [r7, #8]
   81d68:	f8df a098 	ldr.w	sl, [pc, #152]	; 81e04 <__sinit.part.1+0xe4>
   81d6c:	f8df 9098 	ldr.w	r9, [pc, #152]	; 81e08 <__sinit.part.1+0xe8>
   81d70:	f8df 8098 	ldr.w	r8, [pc, #152]	; 81e0c <__sinit.part.1+0xec>
   81d74:	2301      	movs	r3, #1
   81d76:	2209      	movs	r2, #9
   81d78:	f8c5 b020 	str.w	fp, [r5, #32]
   81d7c:	f8c5 a024 	str.w	sl, [r5, #36]	; 0x24
   81d80:	f8c5 9028 	str.w	r9, [r5, #40]	; 0x28
   81d84:	f8c5 802c 	str.w	r8, [r5, #44]	; 0x2c
   81d88:	61ed      	str	r5, [r5, #28]
   81d8a:	4621      	mov	r1, r4
   81d8c:	81f3      	strh	r3, [r6, #14]
   81d8e:	81b2      	strh	r2, [r6, #12]
   81d90:	f106 005c 	add.w	r0, r6, #92	; 0x5c
   81d94:	6034      	str	r4, [r6, #0]
   81d96:	6074      	str	r4, [r6, #4]
   81d98:	60b4      	str	r4, [r6, #8]
   81d9a:	6674      	str	r4, [r6, #100]	; 0x64
   81d9c:	6134      	str	r4, [r6, #16]
   81d9e:	6174      	str	r4, [r6, #20]
   81da0:	61b4      	str	r4, [r6, #24]
   81da2:	2208      	movs	r2, #8
   81da4:	9301      	str	r3, [sp, #4]
   81da6:	f7fe ff35 	bl	80c14 <memset>
   81daa:	68fd      	ldr	r5, [r7, #12]
   81dac:	2012      	movs	r0, #18
   81dae:	2202      	movs	r2, #2
   81db0:	61f6      	str	r6, [r6, #28]
   81db2:	f8c6 b020 	str.w	fp, [r6, #32]
   81db6:	f8c6 a024 	str.w	sl, [r6, #36]	; 0x24
   81dba:	f8c6 9028 	str.w	r9, [r6, #40]	; 0x28
   81dbe:	f8c6 802c 	str.w	r8, [r6, #44]	; 0x2c
   81dc2:	4621      	mov	r1, r4
   81dc4:	81a8      	strh	r0, [r5, #12]
   81dc6:	81ea      	strh	r2, [r5, #14]
   81dc8:	602c      	str	r4, [r5, #0]
   81dca:	606c      	str	r4, [r5, #4]
   81dcc:	60ac      	str	r4, [r5, #8]
   81dce:	666c      	str	r4, [r5, #100]	; 0x64
   81dd0:	612c      	str	r4, [r5, #16]
   81dd2:	616c      	str	r4, [r5, #20]
   81dd4:	61ac      	str	r4, [r5, #24]
   81dd6:	f105 005c 	add.w	r0, r5, #92	; 0x5c
   81dda:	2208      	movs	r2, #8
   81ddc:	f7fe ff1a 	bl	80c14 <memset>
   81de0:	9b01      	ldr	r3, [sp, #4]
   81de2:	61ed      	str	r5, [r5, #28]
   81de4:	f8c5 b020 	str.w	fp, [r5, #32]
   81de8:	f8c5 a024 	str.w	sl, [r5, #36]	; 0x24
   81dec:	f8c5 9028 	str.w	r9, [r5, #40]	; 0x28
   81df0:	f8c5 802c 	str.w	r8, [r5, #44]	; 0x2c
   81df4:	63bb      	str	r3, [r7, #56]	; 0x38
   81df6:	b003      	add	sp, #12
   81df8:	e8bd 8ff0 	ldmia.w	sp!, {r4, r5, r6, r7, r8, r9, sl, fp, pc}
   81dfc:	00081d15 	.word	0x00081d15
   81e00:	00083145 	.word	0x00083145
   81e04:	00083169 	.word	0x00083169
   81e08:	000831a1 	.word	0x000831a1
   81e0c:	000831c1 	.word	0x000831c1

00081e10 <__sinit>:
   81e10:	6b83      	ldr	r3, [r0, #56]	; 0x38
   81e12:	b103      	cbz	r3, 81e16 <__sinit+0x6>
   81e14:	4770      	bx	lr
   81e16:	f7ff bf83 	b.w	81d20 <__sinit.part.1>
   81e1a:	bf00      	nop

00081e1c <__sfp_lock_acquire>:
   81e1c:	4770      	bx	lr
   81e1e:	bf00      	nop

00081e20 <__sfp_lock_release>:
   81e20:	4770      	bx	lr
   81e22:	bf00      	nop

00081e24 <__libc_fini_array>:
   81e24:	b538      	push	{r3, r4, r5, lr}
   81e26:	4b08      	ldr	r3, [pc, #32]	; (81e48 <__libc_fini_array+0x24>)
   81e28:	4d08      	ldr	r5, [pc, #32]	; (81e4c <__libc_fini_array+0x28>)
   81e2a:	1aed      	subs	r5, r5, r3
   81e2c:	10ac      	asrs	r4, r5, #2
   81e2e:	bf18      	it	ne
   81e30:	18ed      	addne	r5, r5, r3
   81e32:	d005      	beq.n	81e40 <__libc_fini_array+0x1c>
   81e34:	3c01      	subs	r4, #1
   81e36:	f855 3d04 	ldr.w	r3, [r5, #-4]!
   81e3a:	4798      	blx	r3
   81e3c:	2c00      	cmp	r4, #0
   81e3e:	d1f9      	bne.n	81e34 <__libc_fini_array+0x10>
   81e40:	e8bd 4038 	ldmia.w	sp!, {r3, r4, r5, lr}
   81e44:	f001 bea4 	b.w	83b90 <_fini>
   81e48:	00083b9c 	.word	0x00083b9c
   81e4c:	00083ba0 	.word	0x00083ba0

00081e50 <__fputwc>:
   81e50:	e92d 41f0 	stmdb	sp!, {r4, r5, r6, r7, r8, lr}
   81e54:	b082      	sub	sp, #8
   81e56:	4607      	mov	r7, r0
   81e58:	460e      	mov	r6, r1
   81e5a:	4614      	mov	r4, r2
   81e5c:	f000 fb44 	bl	824e8 <__locale_mb_cur_max>
   81e60:	2801      	cmp	r0, #1
   81e62:	d040      	beq.n	81ee6 <__fputwc+0x96>
   81e64:	4638      	mov	r0, r7
   81e66:	a901      	add	r1, sp, #4
   81e68:	4632      	mov	r2, r6
   81e6a:	f104 035c 	add.w	r3, r4, #92	; 0x5c
   81e6e:	f001 fa2d 	bl	832cc <_wcrtomb_r>
   81e72:	f1b0 3fff 	cmp.w	r0, #4294967295
   81e76:	4680      	mov	r8, r0
   81e78:	d02e      	beq.n	81ed8 <__fputwc+0x88>
   81e7a:	2800      	cmp	r0, #0
   81e7c:	d03b      	beq.n	81ef6 <__fputwc+0xa6>
   81e7e:	f89d 1004 	ldrb.w	r1, [sp, #4]
   81e82:	2500      	movs	r5, #0
   81e84:	e009      	b.n	81e9a <__fputwc+0x4a>
   81e86:	6823      	ldr	r3, [r4, #0]
   81e88:	7019      	strb	r1, [r3, #0]
   81e8a:	6823      	ldr	r3, [r4, #0]
   81e8c:	3301      	adds	r3, #1
   81e8e:	6023      	str	r3, [r4, #0]
   81e90:	3501      	adds	r5, #1
   81e92:	45a8      	cmp	r8, r5
   81e94:	d92f      	bls.n	81ef6 <__fputwc+0xa6>
   81e96:	ab01      	add	r3, sp, #4
   81e98:	5d59      	ldrb	r1, [r3, r5]
   81e9a:	68a3      	ldr	r3, [r4, #8]
   81e9c:	3b01      	subs	r3, #1
   81e9e:	2b00      	cmp	r3, #0
   81ea0:	60a3      	str	r3, [r4, #8]
   81ea2:	daf0      	bge.n	81e86 <__fputwc+0x36>
   81ea4:	69a2      	ldr	r2, [r4, #24]
   81ea6:	4293      	cmp	r3, r2
   81ea8:	db06      	blt.n	81eb8 <__fputwc+0x68>
   81eaa:	6823      	ldr	r3, [r4, #0]
   81eac:	7019      	strb	r1, [r3, #0]
   81eae:	6823      	ldr	r3, [r4, #0]
   81eb0:	7819      	ldrb	r1, [r3, #0]
   81eb2:	3301      	adds	r3, #1
   81eb4:	290a      	cmp	r1, #10
   81eb6:	d1ea      	bne.n	81e8e <__fputwc+0x3e>
   81eb8:	4638      	mov	r0, r7
   81eba:	4622      	mov	r2, r4
   81ebc:	f001 f9b2 	bl	83224 <__swbuf_r>
   81ec0:	f1a0 30ff 	sub.w	r0, r0, #4294967295
   81ec4:	fab0 f080 	clz	r0, r0
   81ec8:	0940      	lsrs	r0, r0, #5
   81eca:	2800      	cmp	r0, #0
   81ecc:	d0e0      	beq.n	81e90 <__fputwc+0x40>
   81ece:	f04f 30ff 	mov.w	r0, #4294967295
   81ed2:	b002      	add	sp, #8
   81ed4:	e8bd 81f0 	ldmia.w	sp!, {r4, r5, r6, r7, r8, pc}
   81ed8:	89a3      	ldrh	r3, [r4, #12]
   81eda:	f043 0340 	orr.w	r3, r3, #64	; 0x40
   81ede:	81a3      	strh	r3, [r4, #12]
   81ee0:	b002      	add	sp, #8
   81ee2:	e8bd 81f0 	ldmia.w	sp!, {r4, r5, r6, r7, r8, pc}
   81ee6:	1e73      	subs	r3, r6, #1
   81ee8:	2bfe      	cmp	r3, #254	; 0xfe
   81eea:	d8bb      	bhi.n	81e64 <__fputwc+0x14>
   81eec:	b2f1      	uxtb	r1, r6
   81eee:	4680      	mov	r8, r0
   81ef0:	f88d 1004 	strb.w	r1, [sp, #4]
   81ef4:	e7c5      	b.n	81e82 <__fputwc+0x32>
   81ef6:	4630      	mov	r0, r6
   81ef8:	b002      	add	sp, #8
   81efa:	e8bd 81f0 	ldmia.w	sp!, {r4, r5, r6, r7, r8, pc}
   81efe:	bf00      	nop

00081f00 <_fputwc_r>:
   81f00:	8993      	ldrh	r3, [r2, #12]
   81f02:	f413 5f00 	tst.w	r3, #8192	; 0x2000
   81f06:	d10b      	bne.n	81f20 <_fputwc_r+0x20>
   81f08:	b410      	push	{r4}
   81f0a:	6e54      	ldr	r4, [r2, #100]	; 0x64
   81f0c:	f443 5300 	orr.w	r3, r3, #8192	; 0x2000
   81f10:	f444 5400 	orr.w	r4, r4, #8192	; 0x2000
   81f14:	6654      	str	r4, [r2, #100]	; 0x64
   81f16:	8193      	strh	r3, [r2, #12]
   81f18:	f85d 4b04 	ldr.w	r4, [sp], #4
   81f1c:	f7ff bf98 	b.w	81e50 <__fputwc>
   81f20:	f7ff bf96 	b.w	81e50 <__fputwc>

00081f24 <_malloc_trim_r>:
   81f24:	b5f8      	push	{r3, r4, r5, r6, r7, lr}
   81f26:	460c      	mov	r4, r1
   81f28:	4f22      	ldr	r7, [pc, #136]	; (81fb4 <_malloc_trim_r+0x90>)
   81f2a:	4606      	mov	r6, r0
   81f2c:	f000 ff04 	bl	82d38 <__malloc_lock>
   81f30:	68bb      	ldr	r3, [r7, #8]
   81f32:	685d      	ldr	r5, [r3, #4]
   81f34:	f025 0503 	bic.w	r5, r5, #3
   81f38:	1b29      	subs	r1, r5, r4
   81f3a:	f601 71ef 	addw	r1, r1, #4079	; 0xfef
   81f3e:	f421 617f 	bic.w	r1, r1, #4080	; 0xff0
   81f42:	f021 010f 	bic.w	r1, r1, #15
   81f46:	f5a1 5480 	sub.w	r4, r1, #4096	; 0x1000
   81f4a:	f5b4 5f80 	cmp.w	r4, #4096	; 0x1000
   81f4e:	db07      	blt.n	81f60 <_malloc_trim_r+0x3c>
   81f50:	4630      	mov	r0, r6
   81f52:	2100      	movs	r1, #0
   81f54:	f001 f8e4 	bl	83120 <_sbrk_r>
   81f58:	68bb      	ldr	r3, [r7, #8]
   81f5a:	442b      	add	r3, r5
   81f5c:	4298      	cmp	r0, r3
   81f5e:	d004      	beq.n	81f6a <_malloc_trim_r+0x46>
   81f60:	4630      	mov	r0, r6
   81f62:	f000 feeb 	bl	82d3c <__malloc_unlock>
   81f66:	2000      	movs	r0, #0
   81f68:	bdf8      	pop	{r3, r4, r5, r6, r7, pc}
   81f6a:	4630      	mov	r0, r6
   81f6c:	4261      	negs	r1, r4
   81f6e:	f001 f8d7 	bl	83120 <_sbrk_r>
   81f72:	3001      	adds	r0, #1
   81f74:	d00d      	beq.n	81f92 <_malloc_trim_r+0x6e>
   81f76:	4b10      	ldr	r3, [pc, #64]	; (81fb8 <_malloc_trim_r+0x94>)
   81f78:	68ba      	ldr	r2, [r7, #8]
   81f7a:	6819      	ldr	r1, [r3, #0]
   81f7c:	1b2d      	subs	r5, r5, r4
   81f7e:	f045 0501 	orr.w	r5, r5, #1
   81f82:	4630      	mov	r0, r6
   81f84:	1b09      	subs	r1, r1, r4
   81f86:	6055      	str	r5, [r2, #4]
   81f88:	6019      	str	r1, [r3, #0]
   81f8a:	f000 fed7 	bl	82d3c <__malloc_unlock>
   81f8e:	2001      	movs	r0, #1
   81f90:	bdf8      	pop	{r3, r4, r5, r6, r7, pc}
   81f92:	4630      	mov	r0, r6
   81f94:	2100      	movs	r1, #0
   81f96:	f001 f8c3 	bl	83120 <_sbrk_r>
   81f9a:	68ba      	ldr	r2, [r7, #8]
   81f9c:	1a83      	subs	r3, r0, r2
   81f9e:	2b0f      	cmp	r3, #15
   81fa0:	ddde      	ble.n	81f60 <_malloc_trim_r+0x3c>
   81fa2:	4c06      	ldr	r4, [pc, #24]	; (81fbc <_malloc_trim_r+0x98>)
   81fa4:	4904      	ldr	r1, [pc, #16]	; (81fb8 <_malloc_trim_r+0x94>)
   81fa6:	6824      	ldr	r4, [r4, #0]
   81fa8:	f043 0301 	orr.w	r3, r3, #1
   81fac:	1b00      	subs	r0, r0, r4
   81fae:	6053      	str	r3, [r2, #4]
   81fb0:	6008      	str	r0, [r1, #0]
   81fb2:	e7d5      	b.n	81f60 <_malloc_trim_r+0x3c>
   81fb4:	20070548 	.word	0x20070548
   81fb8:	200709fc 	.word	0x200709fc
   81fbc:	20070954 	.word	0x20070954

00081fc0 <_free_r>:
   81fc0:	2900      	cmp	r1, #0
   81fc2:	d04e      	beq.n	82062 <_free_r+0xa2>
   81fc4:	e92d 41f0 	stmdb	sp!, {r4, r5, r6, r7, r8, lr}
   81fc8:	460c      	mov	r4, r1
   81fca:	4680      	mov	r8, r0
   81fcc:	f000 feb4 	bl	82d38 <__malloc_lock>
   81fd0:	f854 7c04 	ldr.w	r7, [r4, #-4]
   81fd4:	4962      	ldr	r1, [pc, #392]	; (82160 <_free_r+0x1a0>)
   81fd6:	f1a4 0508 	sub.w	r5, r4, #8
   81fda:	f027 0201 	bic.w	r2, r7, #1
   81fde:	18ab      	adds	r3, r5, r2
   81fe0:	688e      	ldr	r6, [r1, #8]
   81fe2:	6858      	ldr	r0, [r3, #4]
   81fe4:	429e      	cmp	r6, r3
   81fe6:	f020 0003 	bic.w	r0, r0, #3
   81fea:	d05a      	beq.n	820a2 <_free_r+0xe2>
   81fec:	07fe      	lsls	r6, r7, #31
   81fee:	6058      	str	r0, [r3, #4]
   81ff0:	d40b      	bmi.n	8200a <_free_r+0x4a>
   81ff2:	f854 7c08 	ldr.w	r7, [r4, #-8]
   81ff6:	f101 0e08 	add.w	lr, r1, #8
   81ffa:	1bed      	subs	r5, r5, r7
   81ffc:	68ac      	ldr	r4, [r5, #8]
   81ffe:	443a      	add	r2, r7
   82000:	4574      	cmp	r4, lr
   82002:	d067      	beq.n	820d4 <_free_r+0x114>
   82004:	68ef      	ldr	r7, [r5, #12]
   82006:	60e7      	str	r7, [r4, #12]
   82008:	60bc      	str	r4, [r7, #8]
   8200a:	181c      	adds	r4, r3, r0
   8200c:	6864      	ldr	r4, [r4, #4]
   8200e:	07e4      	lsls	r4, r4, #31
   82010:	d40c      	bmi.n	8202c <_free_r+0x6c>
   82012:	4f54      	ldr	r7, [pc, #336]	; (82164 <_free_r+0x1a4>)
   82014:	689c      	ldr	r4, [r3, #8]
   82016:	4402      	add	r2, r0
   82018:	42bc      	cmp	r4, r7
   8201a:	d07c      	beq.n	82116 <_free_r+0x156>
   8201c:	68d8      	ldr	r0, [r3, #12]
   8201e:	f042 0301 	orr.w	r3, r2, #1
   82022:	60e0      	str	r0, [r4, #12]
   82024:	6084      	str	r4, [r0, #8]
   82026:	606b      	str	r3, [r5, #4]
   82028:	50aa      	str	r2, [r5, r2]
   8202a:	e003      	b.n	82034 <_free_r+0x74>
   8202c:	f042 0301 	orr.w	r3, r2, #1
   82030:	606b      	str	r3, [r5, #4]
   82032:	50aa      	str	r2, [r5, r2]
   82034:	f5b2 7f00 	cmp.w	r2, #512	; 0x200
   82038:	d214      	bcs.n	82064 <_free_r+0xa4>
   8203a:	08d2      	lsrs	r2, r2, #3
   8203c:	eb01 03c2 	add.w	r3, r1, r2, lsl #3
   82040:	2401      	movs	r4, #1
   82042:	6848      	ldr	r0, [r1, #4]
   82044:	1092      	asrs	r2, r2, #2
   82046:	fa04 f202 	lsl.w	r2, r4, r2
   8204a:	689c      	ldr	r4, [r3, #8]
   8204c:	4310      	orrs	r0, r2
   8204e:	60ac      	str	r4, [r5, #8]
   82050:	60eb      	str	r3, [r5, #12]
   82052:	6048      	str	r0, [r1, #4]
   82054:	609d      	str	r5, [r3, #8]
   82056:	60e5      	str	r5, [r4, #12]
   82058:	4640      	mov	r0, r8
   8205a:	e8bd 41f0 	ldmia.w	sp!, {r4, r5, r6, r7, r8, lr}
   8205e:	f000 be6d 	b.w	82d3c <__malloc_unlock>
   82062:	4770      	bx	lr
   82064:	0a53      	lsrs	r3, r2, #9
   82066:	2b04      	cmp	r3, #4
   82068:	d847      	bhi.n	820fa <_free_r+0x13a>
   8206a:	0993      	lsrs	r3, r2, #6
   8206c:	f103 0438 	add.w	r4, r3, #56	; 0x38
   82070:	0060      	lsls	r0, r4, #1
   82072:	eb01 0080 	add.w	r0, r1, r0, lsl #2
   82076:	6883      	ldr	r3, [r0, #8]
   82078:	4939      	ldr	r1, [pc, #228]	; (82160 <_free_r+0x1a0>)
   8207a:	4283      	cmp	r3, r0
   8207c:	d043      	beq.n	82106 <_free_r+0x146>
   8207e:	6859      	ldr	r1, [r3, #4]
   82080:	f021 0103 	bic.w	r1, r1, #3
   82084:	4291      	cmp	r1, r2
   82086:	d902      	bls.n	8208e <_free_r+0xce>
   82088:	689b      	ldr	r3, [r3, #8]
   8208a:	4298      	cmp	r0, r3
   8208c:	d1f7      	bne.n	8207e <_free_r+0xbe>
   8208e:	68da      	ldr	r2, [r3, #12]
   82090:	60ea      	str	r2, [r5, #12]
   82092:	60ab      	str	r3, [r5, #8]
   82094:	4640      	mov	r0, r8
   82096:	6095      	str	r5, [r2, #8]
   82098:	60dd      	str	r5, [r3, #12]
   8209a:	e8bd 41f0 	ldmia.w	sp!, {r4, r5, r6, r7, r8, lr}
   8209e:	f000 be4d 	b.w	82d3c <__malloc_unlock>
   820a2:	07ff      	lsls	r7, r7, #31
   820a4:	4402      	add	r2, r0
   820a6:	d407      	bmi.n	820b8 <_free_r+0xf8>
   820a8:	f854 4c08 	ldr.w	r4, [r4, #-8]
   820ac:	1b2d      	subs	r5, r5, r4
   820ae:	68eb      	ldr	r3, [r5, #12]
   820b0:	68a8      	ldr	r0, [r5, #8]
   820b2:	4422      	add	r2, r4
   820b4:	60c3      	str	r3, [r0, #12]
   820b6:	6098      	str	r0, [r3, #8]
   820b8:	4b2b      	ldr	r3, [pc, #172]	; (82168 <_free_r+0x1a8>)
   820ba:	f042 0001 	orr.w	r0, r2, #1
   820be:	681b      	ldr	r3, [r3, #0]
   820c0:	6068      	str	r0, [r5, #4]
   820c2:	429a      	cmp	r2, r3
   820c4:	608d      	str	r5, [r1, #8]
   820c6:	d3c7      	bcc.n	82058 <_free_r+0x98>
   820c8:	4b28      	ldr	r3, [pc, #160]	; (8216c <_free_r+0x1ac>)
   820ca:	4640      	mov	r0, r8
   820cc:	6819      	ldr	r1, [r3, #0]
   820ce:	f7ff ff29 	bl	81f24 <_malloc_trim_r>
   820d2:	e7c1      	b.n	82058 <_free_r+0x98>
   820d4:	1819      	adds	r1, r3, r0
   820d6:	6849      	ldr	r1, [r1, #4]
   820d8:	07c9      	lsls	r1, r1, #31
   820da:	d409      	bmi.n	820f0 <_free_r+0x130>
   820dc:	68d9      	ldr	r1, [r3, #12]
   820de:	4402      	add	r2, r0
   820e0:	689b      	ldr	r3, [r3, #8]
   820e2:	f042 0001 	orr.w	r0, r2, #1
   820e6:	60d9      	str	r1, [r3, #12]
   820e8:	608b      	str	r3, [r1, #8]
   820ea:	6068      	str	r0, [r5, #4]
   820ec:	50aa      	str	r2, [r5, r2]
   820ee:	e7b3      	b.n	82058 <_free_r+0x98>
   820f0:	f042 0301 	orr.w	r3, r2, #1
   820f4:	606b      	str	r3, [r5, #4]
   820f6:	50aa      	str	r2, [r5, r2]
   820f8:	e7ae      	b.n	82058 <_free_r+0x98>
   820fa:	2b14      	cmp	r3, #20
   820fc:	d814      	bhi.n	82128 <_free_r+0x168>
   820fe:	f103 045b 	add.w	r4, r3, #91	; 0x5b
   82102:	0060      	lsls	r0, r4, #1
   82104:	e7b5      	b.n	82072 <_free_r+0xb2>
   82106:	684a      	ldr	r2, [r1, #4]
   82108:	10a4      	asrs	r4, r4, #2
   8210a:	2001      	movs	r0, #1
   8210c:	40a0      	lsls	r0, r4
   8210e:	4302      	orrs	r2, r0
   82110:	604a      	str	r2, [r1, #4]
   82112:	461a      	mov	r2, r3
   82114:	e7bc      	b.n	82090 <_free_r+0xd0>
   82116:	f042 0301 	orr.w	r3, r2, #1
   8211a:	614d      	str	r5, [r1, #20]
   8211c:	610d      	str	r5, [r1, #16]
   8211e:	60ec      	str	r4, [r5, #12]
   82120:	60ac      	str	r4, [r5, #8]
   82122:	606b      	str	r3, [r5, #4]
   82124:	50aa      	str	r2, [r5, r2]
   82126:	e797      	b.n	82058 <_free_r+0x98>
   82128:	2b54      	cmp	r3, #84	; 0x54
   8212a:	d804      	bhi.n	82136 <_free_r+0x176>
   8212c:	0b13      	lsrs	r3, r2, #12
   8212e:	f103 046e 	add.w	r4, r3, #110	; 0x6e
   82132:	0060      	lsls	r0, r4, #1
   82134:	e79d      	b.n	82072 <_free_r+0xb2>
   82136:	f5b3 7faa 	cmp.w	r3, #340	; 0x154
   8213a:	d804      	bhi.n	82146 <_free_r+0x186>
   8213c:	0bd3      	lsrs	r3, r2, #15
   8213e:	f103 0477 	add.w	r4, r3, #119	; 0x77
   82142:	0060      	lsls	r0, r4, #1
   82144:	e795      	b.n	82072 <_free_r+0xb2>
   82146:	f240 5054 	movw	r0, #1364	; 0x554
   8214a:	4283      	cmp	r3, r0
   8214c:	d804      	bhi.n	82158 <_free_r+0x198>
   8214e:	0c93      	lsrs	r3, r2, #18
   82150:	f103 047c 	add.w	r4, r3, #124	; 0x7c
   82154:	0060      	lsls	r0, r4, #1
   82156:	e78c      	b.n	82072 <_free_r+0xb2>
   82158:	20fc      	movs	r0, #252	; 0xfc
   8215a:	247e      	movs	r4, #126	; 0x7e
   8215c:	e789      	b.n	82072 <_free_r+0xb2>
   8215e:	bf00      	nop
   82160:	20070548 	.word	0x20070548
   82164:	20070550 	.word	0x20070550
   82168:	20070950 	.word	0x20070950
   8216c:	200709f8 	.word	0x200709f8

00082170 <__sfvwrite_r>:
   82170:	6893      	ldr	r3, [r2, #8]
   82172:	2b00      	cmp	r3, #0
   82174:	f000 80b1 	beq.w	822da <__sfvwrite_r+0x16a>
   82178:	e92d 4ff0 	stmdb	sp!, {r4, r5, r6, r7, r8, r9, sl, fp, lr}
   8217c:	f8b1 e00c 	ldrh.w	lr, [r1, #12]
   82180:	b083      	sub	sp, #12
   82182:	f01e 0f08 	tst.w	lr, #8
   82186:	460c      	mov	r4, r1
   82188:	4681      	mov	r9, r0
   8218a:	4616      	mov	r6, r2
   8218c:	d028      	beq.n	821e0 <__sfvwrite_r+0x70>
   8218e:	690b      	ldr	r3, [r1, #16]
   82190:	b333      	cbz	r3, 821e0 <__sfvwrite_r+0x70>
   82192:	f00e 0802 	and.w	r8, lr, #2
   82196:	fa1f f088 	uxth.w	r0, r8
   8219a:	6835      	ldr	r5, [r6, #0]
   8219c:	b380      	cbz	r0, 82200 <__sfvwrite_r+0x90>
   8219e:	f04f 0b00 	mov.w	fp, #0
   821a2:	46d8      	mov	r8, fp
   821a4:	f8df a2e4 	ldr.w	sl, [pc, #740]	; 8248c <__sfvwrite_r+0x31c>
   821a8:	f1b8 0f00 	cmp.w	r8, #0
   821ac:	f000 808f 	beq.w	822ce <__sfvwrite_r+0x15e>
   821b0:	45d0      	cmp	r8, sl
   821b2:	4643      	mov	r3, r8
   821b4:	4648      	mov	r0, r9
   821b6:	bf28      	it	cs
   821b8:	4653      	movcs	r3, sl
   821ba:	69e1      	ldr	r1, [r4, #28]
   821bc:	465a      	mov	r2, fp
   821be:	6a67      	ldr	r7, [r4, #36]	; 0x24
   821c0:	47b8      	blx	r7
   821c2:	2800      	cmp	r0, #0
   821c4:	f340 80a8 	ble.w	82318 <__sfvwrite_r+0x1a8>
   821c8:	68b3      	ldr	r3, [r6, #8]
   821ca:	4483      	add	fp, r0
   821cc:	1a1b      	subs	r3, r3, r0
   821ce:	ebc0 0808 	rsb	r8, r0, r8
   821d2:	60b3      	str	r3, [r6, #8]
   821d4:	2b00      	cmp	r3, #0
   821d6:	d1e7      	bne.n	821a8 <__sfvwrite_r+0x38>
   821d8:	2000      	movs	r0, #0
   821da:	b003      	add	sp, #12
   821dc:	e8bd 8ff0 	ldmia.w	sp!, {r4, r5, r6, r7, r8, r9, sl, fp, pc}
   821e0:	4648      	mov	r0, r9
   821e2:	4621      	mov	r1, r4
   821e4:	f7ff fc6a 	bl	81abc <__swsetup_r>
   821e8:	2800      	cmp	r0, #0
   821ea:	f040 8146 	bne.w	8247a <__sfvwrite_r+0x30a>
   821ee:	f8b4 e00c 	ldrh.w	lr, [r4, #12]
   821f2:	6835      	ldr	r5, [r6, #0]
   821f4:	f00e 0802 	and.w	r8, lr, #2
   821f8:	fa1f f088 	uxth.w	r0, r8
   821fc:	2800      	cmp	r0, #0
   821fe:	d1ce      	bne.n	8219e <__sfvwrite_r+0x2e>
   82200:	f01e 0b01 	ands.w	fp, lr, #1
   82204:	f040 8091 	bne.w	8232a <__sfvwrite_r+0x1ba>
   82208:	46d8      	mov	r8, fp
   8220a:	f1b8 0f00 	cmp.w	r8, #0
   8220e:	d058      	beq.n	822c2 <__sfvwrite_r+0x152>
   82210:	f41e 7f00 	tst.w	lr, #512	; 0x200
   82214:	68a7      	ldr	r7, [r4, #8]
   82216:	d062      	beq.n	822de <__sfvwrite_r+0x16e>
   82218:	45b8      	cmp	r8, r7
   8221a:	46ba      	mov	sl, r7
   8221c:	f0c0 80c2 	bcc.w	823a4 <__sfvwrite_r+0x234>
   82220:	f41e 6f90 	tst.w	lr, #1152	; 0x480
   82224:	f000 80c0 	beq.w	823a8 <__sfvwrite_r+0x238>
   82228:	6967      	ldr	r7, [r4, #20]
   8222a:	6921      	ldr	r1, [r4, #16]
   8222c:	6823      	ldr	r3, [r4, #0]
   8222e:	eb07 0747 	add.w	r7, r7, r7, lsl #1
   82232:	1a5b      	subs	r3, r3, r1
   82234:	eb07 77d7 	add.w	r7, r7, r7, lsr #31
   82238:	1c58      	adds	r0, r3, #1
   8223a:	107f      	asrs	r7, r7, #1
   8223c:	4440      	add	r0, r8
   8223e:	4287      	cmp	r7, r0
   82240:	463a      	mov	r2, r7
   82242:	bf3c      	itt	cc
   82244:	4607      	movcc	r7, r0
   82246:	463a      	movcc	r2, r7
   82248:	f41e 6f80 	tst.w	lr, #1024	; 0x400
   8224c:	9300      	str	r3, [sp, #0]
   8224e:	f000 80fb 	beq.w	82448 <__sfvwrite_r+0x2d8>
   82252:	4611      	mov	r1, r2
   82254:	4648      	mov	r0, r9
   82256:	f000 f9c5 	bl	825e4 <_malloc_r>
   8225a:	9b00      	ldr	r3, [sp, #0]
   8225c:	4682      	mov	sl, r0
   8225e:	2800      	cmp	r0, #0
   82260:	f000 810e 	beq.w	82480 <__sfvwrite_r+0x310>
   82264:	461a      	mov	r2, r3
   82266:	6921      	ldr	r1, [r4, #16]
   82268:	9300      	str	r3, [sp, #0]
   8226a:	f000 fc8b 	bl	82b84 <memcpy>
   8226e:	89a2      	ldrh	r2, [r4, #12]
   82270:	9b00      	ldr	r3, [sp, #0]
   82272:	f422 6290 	bic.w	r2, r2, #1152	; 0x480
   82276:	f042 0280 	orr.w	r2, r2, #128	; 0x80
   8227a:	81a2      	strh	r2, [r4, #12]
   8227c:	eb0a 0003 	add.w	r0, sl, r3
   82280:	f8c4 a010 	str.w	sl, [r4, #16]
   82284:	1afb      	subs	r3, r7, r3
   82286:	6167      	str	r7, [r4, #20]
   82288:	46c2      	mov	sl, r8
   8228a:	4647      	mov	r7, r8
   8228c:	6020      	str	r0, [r4, #0]
   8228e:	60a3      	str	r3, [r4, #8]
   82290:	4652      	mov	r2, sl
   82292:	4659      	mov	r1, fp
   82294:	f000 fcec 	bl	82c70 <memmove>
   82298:	68a0      	ldr	r0, [r4, #8]
   8229a:	6822      	ldr	r2, [r4, #0]
   8229c:	1bc0      	subs	r0, r0, r7
   8229e:	60a0      	str	r0, [r4, #8]
   822a0:	4640      	mov	r0, r8
   822a2:	eb02 030a 	add.w	r3, r2, sl
   822a6:	6023      	str	r3, [r4, #0]
   822a8:	68b3      	ldr	r3, [r6, #8]
   822aa:	4483      	add	fp, r0
   822ac:	1a1b      	subs	r3, r3, r0
   822ae:	ebc0 0808 	rsb	r8, r0, r8
   822b2:	60b3      	str	r3, [r6, #8]
   822b4:	2b00      	cmp	r3, #0
   822b6:	d08f      	beq.n	821d8 <__sfvwrite_r+0x68>
   822b8:	f8b4 e00c 	ldrh.w	lr, [r4, #12]
   822bc:	f1b8 0f00 	cmp.w	r8, #0
   822c0:	d1a6      	bne.n	82210 <__sfvwrite_r+0xa0>
   822c2:	f8d5 b000 	ldr.w	fp, [r5]
   822c6:	f8d5 8004 	ldr.w	r8, [r5, #4]
   822ca:	3508      	adds	r5, #8
   822cc:	e79d      	b.n	8220a <__sfvwrite_r+0x9a>
   822ce:	f8d5 b000 	ldr.w	fp, [r5]
   822d2:	f8d5 8004 	ldr.w	r8, [r5, #4]
   822d6:	3508      	adds	r5, #8
   822d8:	e766      	b.n	821a8 <__sfvwrite_r+0x38>
   822da:	2000      	movs	r0, #0
   822dc:	4770      	bx	lr
   822de:	6820      	ldr	r0, [r4, #0]
   822e0:	6923      	ldr	r3, [r4, #16]
   822e2:	4298      	cmp	r0, r3
   822e4:	d803      	bhi.n	822ee <__sfvwrite_r+0x17e>
   822e6:	6962      	ldr	r2, [r4, #20]
   822e8:	4590      	cmp	r8, r2
   822ea:	f080 8085 	bcs.w	823f8 <__sfvwrite_r+0x288>
   822ee:	4547      	cmp	r7, r8
   822f0:	bf28      	it	cs
   822f2:	4647      	movcs	r7, r8
   822f4:	4659      	mov	r1, fp
   822f6:	463a      	mov	r2, r7
   822f8:	f000 fcba 	bl	82c70 <memmove>
   822fc:	68a3      	ldr	r3, [r4, #8]
   822fe:	6822      	ldr	r2, [r4, #0]
   82300:	1bdb      	subs	r3, r3, r7
   82302:	443a      	add	r2, r7
   82304:	60a3      	str	r3, [r4, #8]
   82306:	6022      	str	r2, [r4, #0]
   82308:	2b00      	cmp	r3, #0
   8230a:	d149      	bne.n	823a0 <__sfvwrite_r+0x230>
   8230c:	4648      	mov	r0, r9
   8230e:	4621      	mov	r1, r4
   82310:	f7ff fcea 	bl	81ce8 <_fflush_r>
   82314:	2800      	cmp	r0, #0
   82316:	d043      	beq.n	823a0 <__sfvwrite_r+0x230>
   82318:	89a3      	ldrh	r3, [r4, #12]
   8231a:	f043 0340 	orr.w	r3, r3, #64	; 0x40
   8231e:	f04f 30ff 	mov.w	r0, #4294967295
   82322:	81a3      	strh	r3, [r4, #12]
   82324:	b003      	add	sp, #12
   82326:	e8bd 8ff0 	ldmia.w	sp!, {r4, r5, r6, r7, r8, r9, sl, fp, pc}
   8232a:	4680      	mov	r8, r0
   8232c:	4683      	mov	fp, r0
   8232e:	4682      	mov	sl, r0
   82330:	9000      	str	r0, [sp, #0]
   82332:	f1ba 0f00 	cmp.w	sl, #0
   82336:	d02b      	beq.n	82390 <__sfvwrite_r+0x220>
   82338:	9b00      	ldr	r3, [sp, #0]
   8233a:	2b00      	cmp	r3, #0
   8233c:	d04f      	beq.n	823de <__sfvwrite_r+0x26e>
   8233e:	45d0      	cmp	r8, sl
   82340:	4643      	mov	r3, r8
   82342:	bf28      	it	cs
   82344:	4653      	movcs	r3, sl
   82346:	6820      	ldr	r0, [r4, #0]
   82348:	6921      	ldr	r1, [r4, #16]
   8234a:	461f      	mov	r7, r3
   8234c:	4288      	cmp	r0, r1
   8234e:	f8d4 e008 	ldr.w	lr, [r4, #8]
   82352:	6962      	ldr	r2, [r4, #20]
   82354:	d903      	bls.n	8235e <__sfvwrite_r+0x1ee>
   82356:	eb0e 0c02 	add.w	ip, lr, r2
   8235a:	4563      	cmp	r3, ip
   8235c:	dc5e      	bgt.n	8241c <__sfvwrite_r+0x2ac>
   8235e:	4293      	cmp	r3, r2
   82360:	db24      	blt.n	823ac <__sfvwrite_r+0x23c>
   82362:	4613      	mov	r3, r2
   82364:	6a67      	ldr	r7, [r4, #36]	; 0x24
   82366:	4648      	mov	r0, r9
   82368:	69e1      	ldr	r1, [r4, #28]
   8236a:	465a      	mov	r2, fp
   8236c:	47b8      	blx	r7
   8236e:	1e07      	subs	r7, r0, #0
   82370:	ddd2      	ble.n	82318 <__sfvwrite_r+0x1a8>
   82372:	ebb8 0807 	subs.w	r8, r8, r7
   82376:	d029      	beq.n	823cc <__sfvwrite_r+0x25c>
   82378:	68b3      	ldr	r3, [r6, #8]
   8237a:	44bb      	add	fp, r7
   8237c:	1bdb      	subs	r3, r3, r7
   8237e:	ebc7 0a0a 	rsb	sl, r7, sl
   82382:	60b3      	str	r3, [r6, #8]
   82384:	2b00      	cmp	r3, #0
   82386:	f43f af27 	beq.w	821d8 <__sfvwrite_r+0x68>
   8238a:	f1ba 0f00 	cmp.w	sl, #0
   8238e:	d1d3      	bne.n	82338 <__sfvwrite_r+0x1c8>
   82390:	2300      	movs	r3, #0
   82392:	f8d5 b000 	ldr.w	fp, [r5]
   82396:	f8d5 a004 	ldr.w	sl, [r5, #4]
   8239a:	9300      	str	r3, [sp, #0]
   8239c:	3508      	adds	r5, #8
   8239e:	e7c8      	b.n	82332 <__sfvwrite_r+0x1c2>
   823a0:	4638      	mov	r0, r7
   823a2:	e781      	b.n	822a8 <__sfvwrite_r+0x138>
   823a4:	4647      	mov	r7, r8
   823a6:	46c2      	mov	sl, r8
   823a8:	6820      	ldr	r0, [r4, #0]
   823aa:	e771      	b.n	82290 <__sfvwrite_r+0x120>
   823ac:	461a      	mov	r2, r3
   823ae:	4659      	mov	r1, fp
   823b0:	9301      	str	r3, [sp, #4]
   823b2:	f000 fc5d 	bl	82c70 <memmove>
   823b6:	68a2      	ldr	r2, [r4, #8]
   823b8:	6821      	ldr	r1, [r4, #0]
   823ba:	9b01      	ldr	r3, [sp, #4]
   823bc:	ebb8 0807 	subs.w	r8, r8, r7
   823c0:	eba2 0203 	sub.w	r2, r2, r3
   823c4:	440b      	add	r3, r1
   823c6:	60a2      	str	r2, [r4, #8]
   823c8:	6023      	str	r3, [r4, #0]
   823ca:	d1d5      	bne.n	82378 <__sfvwrite_r+0x208>
   823cc:	4648      	mov	r0, r9
   823ce:	4621      	mov	r1, r4
   823d0:	f7ff fc8a 	bl	81ce8 <_fflush_r>
   823d4:	2800      	cmp	r0, #0
   823d6:	d19f      	bne.n	82318 <__sfvwrite_r+0x1a8>
   823d8:	f8cd 8000 	str.w	r8, [sp]
   823dc:	e7cc      	b.n	82378 <__sfvwrite_r+0x208>
   823de:	4658      	mov	r0, fp
   823e0:	210a      	movs	r1, #10
   823e2:	4652      	mov	r2, sl
   823e4:	f000 fb84 	bl	82af0 <memchr>
   823e8:	2800      	cmp	r0, #0
   823ea:	d041      	beq.n	82470 <__sfvwrite_r+0x300>
   823ec:	3001      	adds	r0, #1
   823ee:	2301      	movs	r3, #1
   823f0:	ebcb 0800 	rsb	r8, fp, r0
   823f4:	9300      	str	r3, [sp, #0]
   823f6:	e7a2      	b.n	8233e <__sfvwrite_r+0x1ce>
   823f8:	f06f 4300 	mvn.w	r3, #2147483648	; 0x80000000
   823fc:	4543      	cmp	r3, r8
   823fe:	bf28      	it	cs
   82400:	4643      	movcs	r3, r8
   82402:	fb93 f3f2 	sdiv	r3, r3, r2
   82406:	6a67      	ldr	r7, [r4, #36]	; 0x24
   82408:	fb03 f302 	mul.w	r3, r3, r2
   8240c:	4648      	mov	r0, r9
   8240e:	69e1      	ldr	r1, [r4, #28]
   82410:	465a      	mov	r2, fp
   82412:	47b8      	blx	r7
   82414:	2800      	cmp	r0, #0
   82416:	f73f af47 	bgt.w	822a8 <__sfvwrite_r+0x138>
   8241a:	e77d      	b.n	82318 <__sfvwrite_r+0x1a8>
   8241c:	4662      	mov	r2, ip
   8241e:	4659      	mov	r1, fp
   82420:	f8cd c004 	str.w	ip, [sp, #4]
   82424:	f000 fc24 	bl	82c70 <memmove>
   82428:	6823      	ldr	r3, [r4, #0]
   8242a:	f8dd c004 	ldr.w	ip, [sp, #4]
   8242e:	4648      	mov	r0, r9
   82430:	4463      	add	r3, ip
   82432:	6023      	str	r3, [r4, #0]
   82434:	4621      	mov	r1, r4
   82436:	f7ff fc57 	bl	81ce8 <_fflush_r>
   8243a:	f8dd c004 	ldr.w	ip, [sp, #4]
   8243e:	2800      	cmp	r0, #0
   82440:	f47f af6a 	bne.w	82318 <__sfvwrite_r+0x1a8>
   82444:	4667      	mov	r7, ip
   82446:	e794      	b.n	82372 <__sfvwrite_r+0x202>
   82448:	4648      	mov	r0, r9
   8244a:	f000 fc79 	bl	82d40 <_realloc_r>
   8244e:	9b00      	ldr	r3, [sp, #0]
   82450:	4682      	mov	sl, r0
   82452:	2800      	cmp	r0, #0
   82454:	f47f af12 	bne.w	8227c <__sfvwrite_r+0x10c>
   82458:	4648      	mov	r0, r9
   8245a:	6921      	ldr	r1, [r4, #16]
   8245c:	f7ff fdb0 	bl	81fc0 <_free_r>
   82460:	89a3      	ldrh	r3, [r4, #12]
   82462:	220c      	movs	r2, #12
   82464:	f023 0380 	bic.w	r3, r3, #128	; 0x80
   82468:	b29b      	uxth	r3, r3
   8246a:	f8c9 2000 	str.w	r2, [r9]
   8246e:	e754      	b.n	8231a <__sfvwrite_r+0x1aa>
   82470:	2301      	movs	r3, #1
   82472:	f10a 0801 	add.w	r8, sl, #1
   82476:	9300      	str	r3, [sp, #0]
   82478:	e761      	b.n	8233e <__sfvwrite_r+0x1ce>
   8247a:	f04f 30ff 	mov.w	r0, #4294967295
   8247e:	e6ac      	b.n	821da <__sfvwrite_r+0x6a>
   82480:	230c      	movs	r3, #12
   82482:	f8c9 3000 	str.w	r3, [r9]
   82486:	89a3      	ldrh	r3, [r4, #12]
   82488:	e747      	b.n	8231a <__sfvwrite_r+0x1aa>
   8248a:	bf00      	nop
   8248c:	7ffffc00 	.word	0x7ffffc00

00082490 <_fwalk_reent>:
   82490:	e92d 43f8 	stmdb	sp!, {r3, r4, r5, r6, r7, r8, r9, lr}
   82494:	f510 7638 	adds.w	r6, r0, #736	; 0x2e0
   82498:	d01e      	beq.n	824d8 <_fwalk_reent+0x48>
   8249a:	4688      	mov	r8, r1
   8249c:	4607      	mov	r7, r0
   8249e:	f04f 0900 	mov.w	r9, #0
   824a2:	6875      	ldr	r5, [r6, #4]
   824a4:	68b4      	ldr	r4, [r6, #8]
   824a6:	3d01      	subs	r5, #1
   824a8:	d410      	bmi.n	824cc <_fwalk_reent+0x3c>
   824aa:	89a3      	ldrh	r3, [r4, #12]
   824ac:	3d01      	subs	r5, #1
   824ae:	2b01      	cmp	r3, #1
   824b0:	d908      	bls.n	824c4 <_fwalk_reent+0x34>
   824b2:	f9b4 300e 	ldrsh.w	r3, [r4, #14]
   824b6:	3301      	adds	r3, #1
   824b8:	d004      	beq.n	824c4 <_fwalk_reent+0x34>
   824ba:	4638      	mov	r0, r7
   824bc:	4621      	mov	r1, r4
   824be:	47c0      	blx	r8
   824c0:	ea49 0900 	orr.w	r9, r9, r0
   824c4:	1c6b      	adds	r3, r5, #1
   824c6:	f104 0468 	add.w	r4, r4, #104	; 0x68
   824ca:	d1ee      	bne.n	824aa <_fwalk_reent+0x1a>
   824cc:	6836      	ldr	r6, [r6, #0]
   824ce:	2e00      	cmp	r6, #0
   824d0:	d1e7      	bne.n	824a2 <_fwalk_reent+0x12>
   824d2:	4648      	mov	r0, r9
   824d4:	e8bd 83f8 	ldmia.w	sp!, {r3, r4, r5, r6, r7, r8, r9, pc}
   824d8:	46b1      	mov	r9, r6
   824da:	4648      	mov	r0, r9
   824dc:	e8bd 83f8 	ldmia.w	sp!, {r3, r4, r5, r6, r7, r8, r9, pc}

000824e0 <__locale_charset>:
   824e0:	4800      	ldr	r0, [pc, #0]	; (824e4 <__locale_charset+0x4>)
   824e2:	4770      	bx	lr
   824e4:	20070524 	.word	0x20070524

000824e8 <__locale_mb_cur_max>:
   824e8:	4b01      	ldr	r3, [pc, #4]	; (824f0 <__locale_mb_cur_max+0x8>)
   824ea:	6818      	ldr	r0, [r3, #0]
   824ec:	4770      	bx	lr
   824ee:	bf00      	nop
   824f0:	20070544 	.word	0x20070544

000824f4 <__smakebuf_r>:
   824f4:	898b      	ldrh	r3, [r1, #12]
   824f6:	b29a      	uxth	r2, r3
   824f8:	f012 0f02 	tst.w	r2, #2
   824fc:	d13c      	bne.n	82578 <__smakebuf_r+0x84>
   824fe:	b5f0      	push	{r4, r5, r6, r7, lr}
   82500:	460c      	mov	r4, r1
   82502:	f9b1 100e 	ldrsh.w	r1, [r1, #14]
   82506:	b091      	sub	sp, #68	; 0x44
   82508:	2900      	cmp	r1, #0
   8250a:	4605      	mov	r5, r0
   8250c:	db19      	blt.n	82542 <__smakebuf_r+0x4e>
   8250e:	aa01      	add	r2, sp, #4
   82510:	f000 ffce 	bl	834b0 <_fstat_r>
   82514:	2800      	cmp	r0, #0
   82516:	db12      	blt.n	8253e <__smakebuf_r+0x4a>
   82518:	9b02      	ldr	r3, [sp, #8]
   8251a:	f403 4370 	and.w	r3, r3, #61440	; 0xf000
   8251e:	f5a3 5700 	sub.w	r7, r3, #8192	; 0x2000
   82522:	fab7 f787 	clz	r7, r7
   82526:	f5b3 4f00 	cmp.w	r3, #32768	; 0x8000
   8252a:	ea4f 1757 	mov.w	r7, r7, lsr #5
   8252e:	d02a      	beq.n	82586 <__smakebuf_r+0x92>
   82530:	89a3      	ldrh	r3, [r4, #12]
   82532:	f44f 6680 	mov.w	r6, #1024	; 0x400
   82536:	f443 6300 	orr.w	r3, r3, #2048	; 0x800
   8253a:	81a3      	strh	r3, [r4, #12]
   8253c:	e00b      	b.n	82556 <__smakebuf_r+0x62>
   8253e:	89a3      	ldrh	r3, [r4, #12]
   82540:	b29a      	uxth	r2, r3
   82542:	f012 0f80 	tst.w	r2, #128	; 0x80
   82546:	f443 6300 	orr.w	r3, r3, #2048	; 0x800
   8254a:	81a3      	strh	r3, [r4, #12]
   8254c:	bf0c      	ite	eq
   8254e:	f44f 6680 	moveq.w	r6, #1024	; 0x400
   82552:	2640      	movne	r6, #64	; 0x40
   82554:	2700      	movs	r7, #0
   82556:	4628      	mov	r0, r5
   82558:	4631      	mov	r1, r6
   8255a:	f000 f843 	bl	825e4 <_malloc_r>
   8255e:	89a3      	ldrh	r3, [r4, #12]
   82560:	b340      	cbz	r0, 825b4 <__smakebuf_r+0xc0>
   82562:	4a1a      	ldr	r2, [pc, #104]	; (825cc <__smakebuf_r+0xd8>)
   82564:	f043 0380 	orr.w	r3, r3, #128	; 0x80
   82568:	63ea      	str	r2, [r5, #60]	; 0x3c
   8256a:	81a3      	strh	r3, [r4, #12]
   8256c:	6020      	str	r0, [r4, #0]
   8256e:	6120      	str	r0, [r4, #16]
   82570:	6166      	str	r6, [r4, #20]
   82572:	b99f      	cbnz	r7, 8259c <__smakebuf_r+0xa8>
   82574:	b011      	add	sp, #68	; 0x44
   82576:	bdf0      	pop	{r4, r5, r6, r7, pc}
   82578:	f101 0343 	add.w	r3, r1, #67	; 0x43
   8257c:	2201      	movs	r2, #1
   8257e:	600b      	str	r3, [r1, #0]
   82580:	610b      	str	r3, [r1, #16]
   82582:	614a      	str	r2, [r1, #20]
   82584:	4770      	bx	lr
   82586:	4b12      	ldr	r3, [pc, #72]	; (825d0 <__smakebuf_r+0xdc>)
   82588:	6aa2      	ldr	r2, [r4, #40]	; 0x28
   8258a:	429a      	cmp	r2, r3
   8258c:	d1d0      	bne.n	82530 <__smakebuf_r+0x3c>
   8258e:	89a3      	ldrh	r3, [r4, #12]
   82590:	f44f 6680 	mov.w	r6, #1024	; 0x400
   82594:	4333      	orrs	r3, r6
   82596:	81a3      	strh	r3, [r4, #12]
   82598:	64e6      	str	r6, [r4, #76]	; 0x4c
   8259a:	e7dc      	b.n	82556 <__smakebuf_r+0x62>
   8259c:	4628      	mov	r0, r5
   8259e:	f9b4 100e 	ldrsh.w	r1, [r4, #14]
   825a2:	f000 ff99 	bl	834d8 <_isatty_r>
   825a6:	2800      	cmp	r0, #0
   825a8:	d0e4      	beq.n	82574 <__smakebuf_r+0x80>
   825aa:	89a3      	ldrh	r3, [r4, #12]
   825ac:	f043 0301 	orr.w	r3, r3, #1
   825b0:	81a3      	strh	r3, [r4, #12]
   825b2:	e7df      	b.n	82574 <__smakebuf_r+0x80>
   825b4:	059a      	lsls	r2, r3, #22
   825b6:	d4dd      	bmi.n	82574 <__smakebuf_r+0x80>
   825b8:	f104 0243 	add.w	r2, r4, #67	; 0x43
   825bc:	f043 0302 	orr.w	r3, r3, #2
   825c0:	2101      	movs	r1, #1
   825c2:	81a3      	strh	r3, [r4, #12]
   825c4:	6022      	str	r2, [r4, #0]
   825c6:	6122      	str	r2, [r4, #16]
   825c8:	6161      	str	r1, [r4, #20]
   825ca:	e7d3      	b.n	82574 <__smakebuf_r+0x80>
   825cc:	00081d15 	.word	0x00081d15
   825d0:	000831a1 	.word	0x000831a1

000825d4 <malloc>:
   825d4:	4b02      	ldr	r3, [pc, #8]	; (825e0 <malloc+0xc>)
   825d6:	4601      	mov	r1, r0
   825d8:	6818      	ldr	r0, [r3, #0]
   825da:	f000 b803 	b.w	825e4 <_malloc_r>
   825de:	bf00      	nop
   825e0:	20070520 	.word	0x20070520

000825e4 <_malloc_r>:
   825e4:	e92d 4ff0 	stmdb	sp!, {r4, r5, r6, r7, r8, r9, sl, fp, lr}
   825e8:	f101 050b 	add.w	r5, r1, #11
   825ec:	2d16      	cmp	r5, #22
   825ee:	b083      	sub	sp, #12
   825f0:	4606      	mov	r6, r0
   825f2:	d927      	bls.n	82644 <_malloc_r+0x60>
   825f4:	f035 0507 	bics.w	r5, r5, #7
   825f8:	f100 80b6 	bmi.w	82768 <_malloc_r+0x184>
   825fc:	42a9      	cmp	r1, r5
   825fe:	f200 80b3 	bhi.w	82768 <_malloc_r+0x184>
   82602:	f000 fb99 	bl	82d38 <__malloc_lock>
   82606:	f5b5 7ffc 	cmp.w	r5, #504	; 0x1f8
   8260a:	d222      	bcs.n	82652 <_malloc_r+0x6e>
   8260c:	4fbc      	ldr	r7, [pc, #752]	; (82900 <_malloc_r+0x31c>)
   8260e:	08e8      	lsrs	r0, r5, #3
   82610:	eb07 03c0 	add.w	r3, r7, r0, lsl #3
   82614:	68dc      	ldr	r4, [r3, #12]
   82616:	429c      	cmp	r4, r3
   82618:	f000 81bc 	beq.w	82994 <_malloc_r+0x3b0>
   8261c:	6863      	ldr	r3, [r4, #4]
   8261e:	68e1      	ldr	r1, [r4, #12]
   82620:	f023 0303 	bic.w	r3, r3, #3
   82624:	4423      	add	r3, r4
   82626:	685a      	ldr	r2, [r3, #4]
   82628:	68a5      	ldr	r5, [r4, #8]
   8262a:	f042 0201 	orr.w	r2, r2, #1
   8262e:	60e9      	str	r1, [r5, #12]
   82630:	4630      	mov	r0, r6
   82632:	608d      	str	r5, [r1, #8]
   82634:	605a      	str	r2, [r3, #4]
   82636:	f000 fb81 	bl	82d3c <__malloc_unlock>
   8263a:	3408      	adds	r4, #8
   8263c:	4620      	mov	r0, r4
   8263e:	b003      	add	sp, #12
   82640:	e8bd 8ff0 	ldmia.w	sp!, {r4, r5, r6, r7, r8, r9, sl, fp, pc}
   82644:	2910      	cmp	r1, #16
   82646:	f200 808f 	bhi.w	82768 <_malloc_r+0x184>
   8264a:	f000 fb75 	bl	82d38 <__malloc_lock>
   8264e:	2510      	movs	r5, #16
   82650:	e7dc      	b.n	8260c <_malloc_r+0x28>
   82652:	0a68      	lsrs	r0, r5, #9
   82654:	f000 808f 	beq.w	82776 <_malloc_r+0x192>
   82658:	2804      	cmp	r0, #4
   8265a:	f200 8147 	bhi.w	828ec <_malloc_r+0x308>
   8265e:	09a8      	lsrs	r0, r5, #6
   82660:	3038      	adds	r0, #56	; 0x38
   82662:	0041      	lsls	r1, r0, #1
   82664:	4fa6      	ldr	r7, [pc, #664]	; (82900 <_malloc_r+0x31c>)
   82666:	eb07 0181 	add.w	r1, r7, r1, lsl #2
   8266a:	68cc      	ldr	r4, [r1, #12]
   8266c:	42a1      	cmp	r1, r4
   8266e:	d106      	bne.n	8267e <_malloc_r+0x9a>
   82670:	e00c      	b.n	8268c <_malloc_r+0xa8>
   82672:	2a00      	cmp	r2, #0
   82674:	f280 8082 	bge.w	8277c <_malloc_r+0x198>
   82678:	68e4      	ldr	r4, [r4, #12]
   8267a:	42a1      	cmp	r1, r4
   8267c:	d006      	beq.n	8268c <_malloc_r+0xa8>
   8267e:	6863      	ldr	r3, [r4, #4]
   82680:	f023 0303 	bic.w	r3, r3, #3
   82684:	1b5a      	subs	r2, r3, r5
   82686:	2a0f      	cmp	r2, #15
   82688:	ddf3      	ble.n	82672 <_malloc_r+0x8e>
   8268a:	3801      	subs	r0, #1
   8268c:	3001      	adds	r0, #1
   8268e:	499c      	ldr	r1, [pc, #624]	; (82900 <_malloc_r+0x31c>)
   82690:	693c      	ldr	r4, [r7, #16]
   82692:	f101 0e08 	add.w	lr, r1, #8
   82696:	4574      	cmp	r4, lr
   82698:	f000 8171 	beq.w	8297e <_malloc_r+0x39a>
   8269c:	6863      	ldr	r3, [r4, #4]
   8269e:	f023 0303 	bic.w	r3, r3, #3
   826a2:	1b5a      	subs	r2, r3, r5
   826a4:	2a0f      	cmp	r2, #15
   826a6:	f300 8157 	bgt.w	82958 <_malloc_r+0x374>
   826aa:	2a00      	cmp	r2, #0
   826ac:	f8c1 e014 	str.w	lr, [r1, #20]
   826b0:	f8c1 e010 	str.w	lr, [r1, #16]
   826b4:	da66      	bge.n	82784 <_malloc_r+0x1a0>
   826b6:	f5b3 7f00 	cmp.w	r3, #512	; 0x200
   826ba:	f080 812d 	bcs.w	82918 <_malloc_r+0x334>
   826be:	08db      	lsrs	r3, r3, #3
   826c0:	eb01 08c3 	add.w	r8, r1, r3, lsl #3
   826c4:	ea4f 0ca3 	mov.w	ip, r3, asr #2
   826c8:	684a      	ldr	r2, [r1, #4]
   826ca:	2301      	movs	r3, #1
   826cc:	fa03 f30c 	lsl.w	r3, r3, ip
   826d0:	f8d8 c008 	ldr.w	ip, [r8, #8]
   826d4:	4313      	orrs	r3, r2
   826d6:	f8c4 c008 	str.w	ip, [r4, #8]
   826da:	f8c4 800c 	str.w	r8, [r4, #12]
   826de:	604b      	str	r3, [r1, #4]
   826e0:	f8c8 4008 	str.w	r4, [r8, #8]
   826e4:	f8cc 400c 	str.w	r4, [ip, #12]
   826e8:	1082      	asrs	r2, r0, #2
   826ea:	2401      	movs	r4, #1
   826ec:	4094      	lsls	r4, r2
   826ee:	429c      	cmp	r4, r3
   826f0:	d855      	bhi.n	8279e <_malloc_r+0x1ba>
   826f2:	4223      	tst	r3, r4
   826f4:	d106      	bne.n	82704 <_malloc_r+0x120>
   826f6:	f020 0003 	bic.w	r0, r0, #3
   826fa:	0064      	lsls	r4, r4, #1
   826fc:	4223      	tst	r3, r4
   826fe:	f100 0004 	add.w	r0, r0, #4
   82702:	d0fa      	beq.n	826fa <_malloc_r+0x116>
   82704:	eb07 08c0 	add.w	r8, r7, r0, lsl #3
   82708:	46c4      	mov	ip, r8
   8270a:	4681      	mov	r9, r0
   8270c:	f8dc 300c 	ldr.w	r3, [ip, #12]
   82710:	459c      	cmp	ip, r3
   82712:	d107      	bne.n	82724 <_malloc_r+0x140>
   82714:	e135      	b.n	82982 <_malloc_r+0x39e>
   82716:	2900      	cmp	r1, #0
   82718:	f280 8145 	bge.w	829a6 <_malloc_r+0x3c2>
   8271c:	68db      	ldr	r3, [r3, #12]
   8271e:	459c      	cmp	ip, r3
   82720:	f000 812f 	beq.w	82982 <_malloc_r+0x39e>
   82724:	685a      	ldr	r2, [r3, #4]
   82726:	f022 0203 	bic.w	r2, r2, #3
   8272a:	1b51      	subs	r1, r2, r5
   8272c:	290f      	cmp	r1, #15
   8272e:	ddf2      	ble.n	82716 <_malloc_r+0x132>
   82730:	461c      	mov	r4, r3
   82732:	68da      	ldr	r2, [r3, #12]
   82734:	f854 cf08 	ldr.w	ip, [r4, #8]!
   82738:	f045 0901 	orr.w	r9, r5, #1
   8273c:	f041 0801 	orr.w	r8, r1, #1
   82740:	441d      	add	r5, r3
   82742:	f8c3 9004 	str.w	r9, [r3, #4]
   82746:	4630      	mov	r0, r6
   82748:	f8cc 200c 	str.w	r2, [ip, #12]
   8274c:	f8c2 c008 	str.w	ip, [r2, #8]
   82750:	617d      	str	r5, [r7, #20]
   82752:	613d      	str	r5, [r7, #16]
   82754:	f8c5 e00c 	str.w	lr, [r5, #12]
   82758:	f8c5 e008 	str.w	lr, [r5, #8]
   8275c:	f8c5 8004 	str.w	r8, [r5, #4]
   82760:	5069      	str	r1, [r5, r1]
   82762:	f000 faeb 	bl	82d3c <__malloc_unlock>
   82766:	e769      	b.n	8263c <_malloc_r+0x58>
   82768:	2400      	movs	r4, #0
   8276a:	4620      	mov	r0, r4
   8276c:	230c      	movs	r3, #12
   8276e:	6033      	str	r3, [r6, #0]
   82770:	b003      	add	sp, #12
   82772:	e8bd 8ff0 	ldmia.w	sp!, {r4, r5, r6, r7, r8, r9, sl, fp, pc}
   82776:	217e      	movs	r1, #126	; 0x7e
   82778:	203f      	movs	r0, #63	; 0x3f
   8277a:	e773      	b.n	82664 <_malloc_r+0x80>
   8277c:	4423      	add	r3, r4
   8277e:	685a      	ldr	r2, [r3, #4]
   82780:	68e1      	ldr	r1, [r4, #12]
   82782:	e751      	b.n	82628 <_malloc_r+0x44>
   82784:	4423      	add	r3, r4
   82786:	685a      	ldr	r2, [r3, #4]
   82788:	4630      	mov	r0, r6
   8278a:	f042 0201 	orr.w	r2, r2, #1
   8278e:	605a      	str	r2, [r3, #4]
   82790:	3408      	adds	r4, #8
   82792:	f000 fad3 	bl	82d3c <__malloc_unlock>
   82796:	4620      	mov	r0, r4
   82798:	b003      	add	sp, #12
   8279a:	e8bd 8ff0 	ldmia.w	sp!, {r4, r5, r6, r7, r8, r9, sl, fp, pc}
   8279e:	68bc      	ldr	r4, [r7, #8]
   827a0:	6863      	ldr	r3, [r4, #4]
   827a2:	f023 0803 	bic.w	r8, r3, #3
   827a6:	4545      	cmp	r5, r8
   827a8:	d804      	bhi.n	827b4 <_malloc_r+0x1d0>
   827aa:	ebc5 0308 	rsb	r3, r5, r8
   827ae:	2b0f      	cmp	r3, #15
   827b0:	f300 808c 	bgt.w	828cc <_malloc_r+0x2e8>
   827b4:	4b53      	ldr	r3, [pc, #332]	; (82904 <_malloc_r+0x320>)
   827b6:	f8df a15c 	ldr.w	sl, [pc, #348]	; 82914 <_malloc_r+0x330>
   827ba:	681a      	ldr	r2, [r3, #0]
   827bc:	f8da 3000 	ldr.w	r3, [sl]
   827c0:	442a      	add	r2, r5
   827c2:	3301      	adds	r3, #1
   827c4:	eb04 0b08 	add.w	fp, r4, r8
   827c8:	f000 8151 	beq.w	82a6e <_malloc_r+0x48a>
   827cc:	f502 5280 	add.w	r2, r2, #4096	; 0x1000
   827d0:	320f      	adds	r2, #15
   827d2:	f422 627f 	bic.w	r2, r2, #4080	; 0xff0
   827d6:	f022 020f 	bic.w	r2, r2, #15
   827da:	4611      	mov	r1, r2
   827dc:	4630      	mov	r0, r6
   827de:	9201      	str	r2, [sp, #4]
   827e0:	f000 fc9e 	bl	83120 <_sbrk_r>
   827e4:	f1b0 3fff 	cmp.w	r0, #4294967295
   827e8:	4681      	mov	r9, r0
   827ea:	9a01      	ldr	r2, [sp, #4]
   827ec:	f000 8148 	beq.w	82a80 <_malloc_r+0x49c>
   827f0:	4583      	cmp	fp, r0
   827f2:	f200 80ef 	bhi.w	829d4 <_malloc_r+0x3f0>
   827f6:	4b44      	ldr	r3, [pc, #272]	; (82908 <_malloc_r+0x324>)
   827f8:	45cb      	cmp	fp, r9
   827fa:	6819      	ldr	r1, [r3, #0]
   827fc:	4411      	add	r1, r2
   827fe:	6019      	str	r1, [r3, #0]
   82800:	f000 8143 	beq.w	82a8a <_malloc_r+0x4a6>
   82804:	f8da 0000 	ldr.w	r0, [sl]
   82808:	f8df e108 	ldr.w	lr, [pc, #264]	; 82914 <_malloc_r+0x330>
   8280c:	3001      	adds	r0, #1
   8280e:	bf1b      	ittet	ne
   82810:	ebcb 0b09 	rsbne	fp, fp, r9
   82814:	4459      	addne	r1, fp
   82816:	f8ce 9000 	streq.w	r9, [lr]
   8281a:	6019      	strne	r1, [r3, #0]
   8281c:	f019 0107 	ands.w	r1, r9, #7
   82820:	f000 8108 	beq.w	82a34 <_malloc_r+0x450>
   82824:	f1c1 0008 	rsb	r0, r1, #8
   82828:	f5c1 5180 	rsb	r1, r1, #4096	; 0x1000
   8282c:	4481      	add	r9, r0
   8282e:	3108      	adds	r1, #8
   82830:	444a      	add	r2, r9
   82832:	f3c2 020b 	ubfx	r2, r2, #0, #12
   82836:	ebc2 0a01 	rsb	sl, r2, r1
   8283a:	4651      	mov	r1, sl
   8283c:	4630      	mov	r0, r6
   8283e:	9301      	str	r3, [sp, #4]
   82840:	f000 fc6e 	bl	83120 <_sbrk_r>
   82844:	1c43      	adds	r3, r0, #1
   82846:	9b01      	ldr	r3, [sp, #4]
   82848:	f000 812d 	beq.w	82aa6 <_malloc_r+0x4c2>
   8284c:	ebc9 0200 	rsb	r2, r9, r0
   82850:	4452      	add	r2, sl
   82852:	f042 0201 	orr.w	r2, r2, #1
   82856:	6819      	ldr	r1, [r3, #0]
   82858:	42bc      	cmp	r4, r7
   8285a:	4451      	add	r1, sl
   8285c:	f8c7 9008 	str.w	r9, [r7, #8]
   82860:	6019      	str	r1, [r3, #0]
   82862:	f8c9 2004 	str.w	r2, [r9, #4]
   82866:	f8df a0a0 	ldr.w	sl, [pc, #160]	; 82908 <_malloc_r+0x324>
   8286a:	d016      	beq.n	8289a <_malloc_r+0x2b6>
   8286c:	f1b8 0f0f 	cmp.w	r8, #15
   82870:	f240 80ef 	bls.w	82a52 <_malloc_r+0x46e>
   82874:	6862      	ldr	r2, [r4, #4]
   82876:	f1a8 030c 	sub.w	r3, r8, #12
   8287a:	f023 0307 	bic.w	r3, r3, #7
   8287e:	f002 0201 	and.w	r2, r2, #1
   82882:	18e0      	adds	r0, r4, r3
   82884:	f04f 0e05 	mov.w	lr, #5
   82888:	431a      	orrs	r2, r3
   8288a:	2b0f      	cmp	r3, #15
   8288c:	6062      	str	r2, [r4, #4]
   8288e:	f8c0 e004 	str.w	lr, [r0, #4]
   82892:	f8c0 e008 	str.w	lr, [r0, #8]
   82896:	f200 810a 	bhi.w	82aae <_malloc_r+0x4ca>
   8289a:	4b1c      	ldr	r3, [pc, #112]	; (8290c <_malloc_r+0x328>)
   8289c:	68bc      	ldr	r4, [r7, #8]
   8289e:	681a      	ldr	r2, [r3, #0]
   828a0:	4291      	cmp	r1, r2
   828a2:	bf88      	it	hi
   828a4:	6019      	strhi	r1, [r3, #0]
   828a6:	4b1a      	ldr	r3, [pc, #104]	; (82910 <_malloc_r+0x32c>)
   828a8:	681a      	ldr	r2, [r3, #0]
   828aa:	4291      	cmp	r1, r2
   828ac:	6862      	ldr	r2, [r4, #4]
   828ae:	bf88      	it	hi
   828b0:	6019      	strhi	r1, [r3, #0]
   828b2:	f022 0203 	bic.w	r2, r2, #3
   828b6:	4295      	cmp	r5, r2
   828b8:	eba2 0305 	sub.w	r3, r2, r5
   828bc:	d801      	bhi.n	828c2 <_malloc_r+0x2de>
   828be:	2b0f      	cmp	r3, #15
   828c0:	dc04      	bgt.n	828cc <_malloc_r+0x2e8>
   828c2:	4630      	mov	r0, r6
   828c4:	f000 fa3a 	bl	82d3c <__malloc_unlock>
   828c8:	2400      	movs	r4, #0
   828ca:	e6b7      	b.n	8263c <_malloc_r+0x58>
   828cc:	f045 0201 	orr.w	r2, r5, #1
   828d0:	f043 0301 	orr.w	r3, r3, #1
   828d4:	4425      	add	r5, r4
   828d6:	6062      	str	r2, [r4, #4]
   828d8:	4630      	mov	r0, r6
   828da:	60bd      	str	r5, [r7, #8]
   828dc:	3408      	adds	r4, #8
   828de:	606b      	str	r3, [r5, #4]
   828e0:	f000 fa2c 	bl	82d3c <__malloc_unlock>
   828e4:	4620      	mov	r0, r4
   828e6:	b003      	add	sp, #12
   828e8:	e8bd 8ff0 	ldmia.w	sp!, {r4, r5, r6, r7, r8, r9, sl, fp, pc}
   828ec:	2814      	cmp	r0, #20
   828ee:	d969      	bls.n	829c4 <_malloc_r+0x3e0>
   828f0:	2854      	cmp	r0, #84	; 0x54
   828f2:	f200 8098 	bhi.w	82a26 <_malloc_r+0x442>
   828f6:	0b28      	lsrs	r0, r5, #12
   828f8:	306e      	adds	r0, #110	; 0x6e
   828fa:	0041      	lsls	r1, r0, #1
   828fc:	e6b2      	b.n	82664 <_malloc_r+0x80>
   828fe:	bf00      	nop
   82900:	20070548 	.word	0x20070548
   82904:	200709f8 	.word	0x200709f8
   82908:	200709fc 	.word	0x200709fc
   8290c:	200709f4 	.word	0x200709f4
   82910:	200709f0 	.word	0x200709f0
   82914:	20070954 	.word	0x20070954
   82918:	0a5a      	lsrs	r2, r3, #9
   8291a:	2a04      	cmp	r2, #4
   8291c:	d955      	bls.n	829ca <_malloc_r+0x3e6>
   8291e:	2a14      	cmp	r2, #20
   82920:	f200 80a7 	bhi.w	82a72 <_malloc_r+0x48e>
   82924:	325b      	adds	r2, #91	; 0x5b
   82926:	ea4f 0c42 	mov.w	ip, r2, lsl #1
   8292a:	eb07 0c8c 	add.w	ip, r7, ip, lsl #2
   8292e:	f8dc 1008 	ldr.w	r1, [ip, #8]
   82932:	f8df 81b8 	ldr.w	r8, [pc, #440]	; 82aec <_malloc_r+0x508>
   82936:	4561      	cmp	r1, ip
   82938:	d07f      	beq.n	82a3a <_malloc_r+0x456>
   8293a:	684a      	ldr	r2, [r1, #4]
   8293c:	f022 0203 	bic.w	r2, r2, #3
   82940:	4293      	cmp	r3, r2
   82942:	d202      	bcs.n	8294a <_malloc_r+0x366>
   82944:	6889      	ldr	r1, [r1, #8]
   82946:	458c      	cmp	ip, r1
   82948:	d1f7      	bne.n	8293a <_malloc_r+0x356>
   8294a:	68ca      	ldr	r2, [r1, #12]
   8294c:	687b      	ldr	r3, [r7, #4]
   8294e:	60e2      	str	r2, [r4, #12]
   82950:	60a1      	str	r1, [r4, #8]
   82952:	6094      	str	r4, [r2, #8]
   82954:	60cc      	str	r4, [r1, #12]
   82956:	e6c7      	b.n	826e8 <_malloc_r+0x104>
   82958:	f045 0701 	orr.w	r7, r5, #1
   8295c:	f042 0301 	orr.w	r3, r2, #1
   82960:	4425      	add	r5, r4
   82962:	6067      	str	r7, [r4, #4]
   82964:	4630      	mov	r0, r6
   82966:	614d      	str	r5, [r1, #20]
   82968:	610d      	str	r5, [r1, #16]
   8296a:	f8c5 e00c 	str.w	lr, [r5, #12]
   8296e:	f8c5 e008 	str.w	lr, [r5, #8]
   82972:	606b      	str	r3, [r5, #4]
   82974:	50aa      	str	r2, [r5, r2]
   82976:	3408      	adds	r4, #8
   82978:	f000 f9e0 	bl	82d3c <__malloc_unlock>
   8297c:	e65e      	b.n	8263c <_malloc_r+0x58>
   8297e:	684b      	ldr	r3, [r1, #4]
   82980:	e6b2      	b.n	826e8 <_malloc_r+0x104>
   82982:	f109 0901 	add.w	r9, r9, #1
   82986:	f019 0f03 	tst.w	r9, #3
   8298a:	f10c 0c08 	add.w	ip, ip, #8
   8298e:	f47f aebd 	bne.w	8270c <_malloc_r+0x128>
   82992:	e02c      	b.n	829ee <_malloc_r+0x40a>
   82994:	f104 0308 	add.w	r3, r4, #8
   82998:	6964      	ldr	r4, [r4, #20]
   8299a:	42a3      	cmp	r3, r4
   8299c:	bf08      	it	eq
   8299e:	3002      	addeq	r0, #2
   829a0:	f43f ae75 	beq.w	8268e <_malloc_r+0xaa>
   829a4:	e63a      	b.n	8261c <_malloc_r+0x38>
   829a6:	461c      	mov	r4, r3
   829a8:	441a      	add	r2, r3
   829aa:	6851      	ldr	r1, [r2, #4]
   829ac:	68db      	ldr	r3, [r3, #12]
   829ae:	f854 5f08 	ldr.w	r5, [r4, #8]!
   829b2:	f041 0101 	orr.w	r1, r1, #1
   829b6:	6051      	str	r1, [r2, #4]
   829b8:	4630      	mov	r0, r6
   829ba:	60eb      	str	r3, [r5, #12]
   829bc:	609d      	str	r5, [r3, #8]
   829be:	f000 f9bd 	bl	82d3c <__malloc_unlock>
   829c2:	e63b      	b.n	8263c <_malloc_r+0x58>
   829c4:	305b      	adds	r0, #91	; 0x5b
   829c6:	0041      	lsls	r1, r0, #1
   829c8:	e64c      	b.n	82664 <_malloc_r+0x80>
   829ca:	099a      	lsrs	r2, r3, #6
   829cc:	3238      	adds	r2, #56	; 0x38
   829ce:	ea4f 0c42 	mov.w	ip, r2, lsl #1
   829d2:	e7aa      	b.n	8292a <_malloc_r+0x346>
   829d4:	42bc      	cmp	r4, r7
   829d6:	4b45      	ldr	r3, [pc, #276]	; (82aec <_malloc_r+0x508>)
   829d8:	f43f af0d 	beq.w	827f6 <_malloc_r+0x212>
   829dc:	689c      	ldr	r4, [r3, #8]
   829de:	6862      	ldr	r2, [r4, #4]
   829e0:	f022 0203 	bic.w	r2, r2, #3
   829e4:	e767      	b.n	828b6 <_malloc_r+0x2d2>
   829e6:	f8d8 8000 	ldr.w	r8, [r8]
   829ea:	4598      	cmp	r8, r3
   829ec:	d17c      	bne.n	82ae8 <_malloc_r+0x504>
   829ee:	f010 0f03 	tst.w	r0, #3
   829f2:	f1a8 0308 	sub.w	r3, r8, #8
   829f6:	f100 30ff 	add.w	r0, r0, #4294967295
   829fa:	d1f4      	bne.n	829e6 <_malloc_r+0x402>
   829fc:	687b      	ldr	r3, [r7, #4]
   829fe:	ea23 0304 	bic.w	r3, r3, r4
   82a02:	607b      	str	r3, [r7, #4]
   82a04:	0064      	lsls	r4, r4, #1
   82a06:	429c      	cmp	r4, r3
   82a08:	f63f aec9 	bhi.w	8279e <_malloc_r+0x1ba>
   82a0c:	2c00      	cmp	r4, #0
   82a0e:	f43f aec6 	beq.w	8279e <_malloc_r+0x1ba>
   82a12:	4223      	tst	r3, r4
   82a14:	4648      	mov	r0, r9
   82a16:	f47f ae75 	bne.w	82704 <_malloc_r+0x120>
   82a1a:	0064      	lsls	r4, r4, #1
   82a1c:	4223      	tst	r3, r4
   82a1e:	f100 0004 	add.w	r0, r0, #4
   82a22:	d0fa      	beq.n	82a1a <_malloc_r+0x436>
   82a24:	e66e      	b.n	82704 <_malloc_r+0x120>
   82a26:	f5b0 7faa 	cmp.w	r0, #340	; 0x154
   82a2a:	d818      	bhi.n	82a5e <_malloc_r+0x47a>
   82a2c:	0be8      	lsrs	r0, r5, #15
   82a2e:	3077      	adds	r0, #119	; 0x77
   82a30:	0041      	lsls	r1, r0, #1
   82a32:	e617      	b.n	82664 <_malloc_r+0x80>
   82a34:	f44f 5180 	mov.w	r1, #4096	; 0x1000
   82a38:	e6fa      	b.n	82830 <_malloc_r+0x24c>
   82a3a:	f8d8 3004 	ldr.w	r3, [r8, #4]
   82a3e:	1092      	asrs	r2, r2, #2
   82a40:	f04f 0c01 	mov.w	ip, #1
   82a44:	fa0c f202 	lsl.w	r2, ip, r2
   82a48:	4313      	orrs	r3, r2
   82a4a:	f8c8 3004 	str.w	r3, [r8, #4]
   82a4e:	460a      	mov	r2, r1
   82a50:	e77d      	b.n	8294e <_malloc_r+0x36a>
   82a52:	2301      	movs	r3, #1
   82a54:	f8c9 3004 	str.w	r3, [r9, #4]
   82a58:	464c      	mov	r4, r9
   82a5a:	2200      	movs	r2, #0
   82a5c:	e72b      	b.n	828b6 <_malloc_r+0x2d2>
   82a5e:	f240 5354 	movw	r3, #1364	; 0x554
   82a62:	4298      	cmp	r0, r3
   82a64:	d81c      	bhi.n	82aa0 <_malloc_r+0x4bc>
   82a66:	0ca8      	lsrs	r0, r5, #18
   82a68:	307c      	adds	r0, #124	; 0x7c
   82a6a:	0041      	lsls	r1, r0, #1
   82a6c:	e5fa      	b.n	82664 <_malloc_r+0x80>
   82a6e:	3210      	adds	r2, #16
   82a70:	e6b3      	b.n	827da <_malloc_r+0x1f6>
   82a72:	2a54      	cmp	r2, #84	; 0x54
   82a74:	d823      	bhi.n	82abe <_malloc_r+0x4da>
   82a76:	0b1a      	lsrs	r2, r3, #12
   82a78:	326e      	adds	r2, #110	; 0x6e
   82a7a:	ea4f 0c42 	mov.w	ip, r2, lsl #1
   82a7e:	e754      	b.n	8292a <_malloc_r+0x346>
   82a80:	68bc      	ldr	r4, [r7, #8]
   82a82:	6862      	ldr	r2, [r4, #4]
   82a84:	f022 0203 	bic.w	r2, r2, #3
   82a88:	e715      	b.n	828b6 <_malloc_r+0x2d2>
   82a8a:	f3cb 000b 	ubfx	r0, fp, #0, #12
   82a8e:	2800      	cmp	r0, #0
   82a90:	f47f aeb8 	bne.w	82804 <_malloc_r+0x220>
   82a94:	4442      	add	r2, r8
   82a96:	68bb      	ldr	r3, [r7, #8]
   82a98:	f042 0201 	orr.w	r2, r2, #1
   82a9c:	605a      	str	r2, [r3, #4]
   82a9e:	e6fc      	b.n	8289a <_malloc_r+0x2b6>
   82aa0:	21fc      	movs	r1, #252	; 0xfc
   82aa2:	207e      	movs	r0, #126	; 0x7e
   82aa4:	e5de      	b.n	82664 <_malloc_r+0x80>
   82aa6:	2201      	movs	r2, #1
   82aa8:	f04f 0a00 	mov.w	sl, #0
   82aac:	e6d3      	b.n	82856 <_malloc_r+0x272>
   82aae:	f104 0108 	add.w	r1, r4, #8
   82ab2:	4630      	mov	r0, r6
   82ab4:	f7ff fa84 	bl	81fc0 <_free_r>
   82ab8:	f8da 1000 	ldr.w	r1, [sl]
   82abc:	e6ed      	b.n	8289a <_malloc_r+0x2b6>
   82abe:	f5b2 7faa 	cmp.w	r2, #340	; 0x154
   82ac2:	d804      	bhi.n	82ace <_malloc_r+0x4ea>
   82ac4:	0bda      	lsrs	r2, r3, #15
   82ac6:	3277      	adds	r2, #119	; 0x77
   82ac8:	ea4f 0c42 	mov.w	ip, r2, lsl #1
   82acc:	e72d      	b.n	8292a <_malloc_r+0x346>
   82ace:	f240 5154 	movw	r1, #1364	; 0x554
   82ad2:	428a      	cmp	r2, r1
   82ad4:	d804      	bhi.n	82ae0 <_malloc_r+0x4fc>
   82ad6:	0c9a      	lsrs	r2, r3, #18
   82ad8:	327c      	adds	r2, #124	; 0x7c
   82ada:	ea4f 0c42 	mov.w	ip, r2, lsl #1
   82ade:	e724      	b.n	8292a <_malloc_r+0x346>
   82ae0:	f04f 0cfc 	mov.w	ip, #252	; 0xfc
   82ae4:	227e      	movs	r2, #126	; 0x7e
   82ae6:	e720      	b.n	8292a <_malloc_r+0x346>
   82ae8:	687b      	ldr	r3, [r7, #4]
   82aea:	e78b      	b.n	82a04 <_malloc_r+0x420>
   82aec:	20070548 	.word	0x20070548

00082af0 <memchr>:
   82af0:	0783      	lsls	r3, r0, #30
   82af2:	b470      	push	{r4, r5, r6}
   82af4:	b2c9      	uxtb	r1, r1
   82af6:	d040      	beq.n	82b7a <memchr+0x8a>
   82af8:	1e54      	subs	r4, r2, #1
   82afa:	2a00      	cmp	r2, #0
   82afc:	d03f      	beq.n	82b7e <memchr+0x8e>
   82afe:	7803      	ldrb	r3, [r0, #0]
   82b00:	428b      	cmp	r3, r1
   82b02:	bf18      	it	ne
   82b04:	1c43      	addne	r3, r0, #1
   82b06:	d105      	bne.n	82b14 <memchr+0x24>
   82b08:	e01c      	b.n	82b44 <memchr+0x54>
   82b0a:	b1ec      	cbz	r4, 82b48 <memchr+0x58>
   82b0c:	7802      	ldrb	r2, [r0, #0]
   82b0e:	3c01      	subs	r4, #1
   82b10:	428a      	cmp	r2, r1
   82b12:	d017      	beq.n	82b44 <memchr+0x54>
   82b14:	f013 0f03 	tst.w	r3, #3
   82b18:	4618      	mov	r0, r3
   82b1a:	f103 0301 	add.w	r3, r3, #1
   82b1e:	d1f4      	bne.n	82b0a <memchr+0x1a>
   82b20:	2c03      	cmp	r4, #3
   82b22:	d814      	bhi.n	82b4e <memchr+0x5e>
   82b24:	b184      	cbz	r4, 82b48 <memchr+0x58>
   82b26:	7803      	ldrb	r3, [r0, #0]
   82b28:	428b      	cmp	r3, r1
   82b2a:	d00b      	beq.n	82b44 <memchr+0x54>
   82b2c:	1905      	adds	r5, r0, r4
   82b2e:	1c43      	adds	r3, r0, #1
   82b30:	e002      	b.n	82b38 <memchr+0x48>
   82b32:	7802      	ldrb	r2, [r0, #0]
   82b34:	428a      	cmp	r2, r1
   82b36:	d005      	beq.n	82b44 <memchr+0x54>
   82b38:	42ab      	cmp	r3, r5
   82b3a:	4618      	mov	r0, r3
   82b3c:	f103 0301 	add.w	r3, r3, #1
   82b40:	d1f7      	bne.n	82b32 <memchr+0x42>
   82b42:	2000      	movs	r0, #0
   82b44:	bc70      	pop	{r4, r5, r6}
   82b46:	4770      	bx	lr
   82b48:	4620      	mov	r0, r4
   82b4a:	bc70      	pop	{r4, r5, r6}
   82b4c:	4770      	bx	lr
   82b4e:	4602      	mov	r2, r0
   82b50:	ea41 2601 	orr.w	r6, r1, r1, lsl #8
   82b54:	ea46 4606 	orr.w	r6, r6, r6, lsl #16
   82b58:	6813      	ldr	r3, [r2, #0]
   82b5a:	4610      	mov	r0, r2
   82b5c:	4073      	eors	r3, r6
   82b5e:	f1a3 3501 	sub.w	r5, r3, #16843009	; 0x1010101
   82b62:	ea25 0303 	bic.w	r3, r5, r3
   82b66:	f013 3f80 	tst.w	r3, #2155905152	; 0x80808080
   82b6a:	f102 0204 	add.w	r2, r2, #4
   82b6e:	d1d9      	bne.n	82b24 <memchr+0x34>
   82b70:	3c04      	subs	r4, #4
   82b72:	2c03      	cmp	r4, #3
   82b74:	4610      	mov	r0, r2
   82b76:	d8ef      	bhi.n	82b58 <memchr+0x68>
   82b78:	e7d4      	b.n	82b24 <memchr+0x34>
   82b7a:	4614      	mov	r4, r2
   82b7c:	e7d0      	b.n	82b20 <memchr+0x30>
   82b7e:	4610      	mov	r0, r2
   82b80:	e7e0      	b.n	82b44 <memchr+0x54>
   82b82:	bf00      	nop

00082b84 <memcpy>:
   82b84:	4684      	mov	ip, r0
   82b86:	ea41 0300 	orr.w	r3, r1, r0
   82b8a:	f013 0303 	ands.w	r3, r3, #3
   82b8e:	d149      	bne.n	82c24 <memcpy+0xa0>
   82b90:	3a40      	subs	r2, #64	; 0x40
   82b92:	d323      	bcc.n	82bdc <memcpy+0x58>
   82b94:	680b      	ldr	r3, [r1, #0]
   82b96:	6003      	str	r3, [r0, #0]
   82b98:	684b      	ldr	r3, [r1, #4]
   82b9a:	6043      	str	r3, [r0, #4]
   82b9c:	688b      	ldr	r3, [r1, #8]
   82b9e:	6083      	str	r3, [r0, #8]
   82ba0:	68cb      	ldr	r3, [r1, #12]
   82ba2:	60c3      	str	r3, [r0, #12]
   82ba4:	690b      	ldr	r3, [r1, #16]
   82ba6:	6103      	str	r3, [r0, #16]
   82ba8:	694b      	ldr	r3, [r1, #20]
   82baa:	6143      	str	r3, [r0, #20]
   82bac:	698b      	ldr	r3, [r1, #24]
   82bae:	6183      	str	r3, [r0, #24]
   82bb0:	69cb      	ldr	r3, [r1, #28]
   82bb2:	61c3      	str	r3, [r0, #28]
   82bb4:	6a0b      	ldr	r3, [r1, #32]
   82bb6:	6203      	str	r3, [r0, #32]
   82bb8:	6a4b      	ldr	r3, [r1, #36]	; 0x24
   82bba:	6243      	str	r3, [r0, #36]	; 0x24
   82bbc:	6a8b      	ldr	r3, [r1, #40]	; 0x28
   82bbe:	6283      	str	r3, [r0, #40]	; 0x28
   82bc0:	6acb      	ldr	r3, [r1, #44]	; 0x2c
   82bc2:	62c3      	str	r3, [r0, #44]	; 0x2c
   82bc4:	6b0b      	ldr	r3, [r1, #48]	; 0x30
   82bc6:	6303      	str	r3, [r0, #48]	; 0x30
   82bc8:	6b4b      	ldr	r3, [r1, #52]	; 0x34
   82bca:	6343      	str	r3, [r0, #52]	; 0x34
   82bcc:	6b8b      	ldr	r3, [r1, #56]	; 0x38
   82bce:	6383      	str	r3, [r0, #56]	; 0x38
   82bd0:	6bcb      	ldr	r3, [r1, #60]	; 0x3c
   82bd2:	63c3      	str	r3, [r0, #60]	; 0x3c
   82bd4:	3040      	adds	r0, #64	; 0x40
   82bd6:	3140      	adds	r1, #64	; 0x40
   82bd8:	3a40      	subs	r2, #64	; 0x40
   82bda:	d2db      	bcs.n	82b94 <memcpy+0x10>
   82bdc:	3230      	adds	r2, #48	; 0x30
   82bde:	d30b      	bcc.n	82bf8 <memcpy+0x74>
   82be0:	680b      	ldr	r3, [r1, #0]
   82be2:	6003      	str	r3, [r0, #0]
   82be4:	684b      	ldr	r3, [r1, #4]
   82be6:	6043      	str	r3, [r0, #4]
   82be8:	688b      	ldr	r3, [r1, #8]
   82bea:	6083      	str	r3, [r0, #8]
   82bec:	68cb      	ldr	r3, [r1, #12]
   82bee:	60c3      	str	r3, [r0, #12]
   82bf0:	3010      	adds	r0, #16
   82bf2:	3110      	adds	r1, #16
   82bf4:	3a10      	subs	r2, #16
   82bf6:	d2f3      	bcs.n	82be0 <memcpy+0x5c>
   82bf8:	320c      	adds	r2, #12
   82bfa:	d305      	bcc.n	82c08 <memcpy+0x84>
   82bfc:	f851 3b04 	ldr.w	r3, [r1], #4
   82c00:	f840 3b04 	str.w	r3, [r0], #4
   82c04:	3a04      	subs	r2, #4
   82c06:	d2f9      	bcs.n	82bfc <memcpy+0x78>
   82c08:	3204      	adds	r2, #4
   82c0a:	d008      	beq.n	82c1e <memcpy+0x9a>
   82c0c:	07d2      	lsls	r2, r2, #31
   82c0e:	bf1c      	itt	ne
   82c10:	f811 3b01 	ldrbne.w	r3, [r1], #1
   82c14:	f800 3b01 	strbne.w	r3, [r0], #1
   82c18:	d301      	bcc.n	82c1e <memcpy+0x9a>
   82c1a:	880b      	ldrh	r3, [r1, #0]
   82c1c:	8003      	strh	r3, [r0, #0]
   82c1e:	4660      	mov	r0, ip
   82c20:	4770      	bx	lr
   82c22:	bf00      	nop
   82c24:	2a08      	cmp	r2, #8
   82c26:	d313      	bcc.n	82c50 <memcpy+0xcc>
   82c28:	078b      	lsls	r3, r1, #30
   82c2a:	d0b1      	beq.n	82b90 <memcpy+0xc>
   82c2c:	f010 0303 	ands.w	r3, r0, #3
   82c30:	d0ae      	beq.n	82b90 <memcpy+0xc>
   82c32:	f1c3 0304 	rsb	r3, r3, #4
   82c36:	1ad2      	subs	r2, r2, r3
   82c38:	07db      	lsls	r3, r3, #31
   82c3a:	bf1c      	itt	ne
   82c3c:	f811 3b01 	ldrbne.w	r3, [r1], #1
   82c40:	f800 3b01 	strbne.w	r3, [r0], #1
   82c44:	d3a4      	bcc.n	82b90 <memcpy+0xc>
   82c46:	f831 3b02 	ldrh.w	r3, [r1], #2
   82c4a:	f820 3b02 	strh.w	r3, [r0], #2
   82c4e:	e79f      	b.n	82b90 <memcpy+0xc>
   82c50:	3a04      	subs	r2, #4
   82c52:	d3d9      	bcc.n	82c08 <memcpy+0x84>
   82c54:	3a01      	subs	r2, #1
   82c56:	f811 3b01 	ldrb.w	r3, [r1], #1
   82c5a:	f800 3b01 	strb.w	r3, [r0], #1
   82c5e:	d2f9      	bcs.n	82c54 <memcpy+0xd0>
   82c60:	780b      	ldrb	r3, [r1, #0]
   82c62:	7003      	strb	r3, [r0, #0]
   82c64:	784b      	ldrb	r3, [r1, #1]
   82c66:	7043      	strb	r3, [r0, #1]
   82c68:	788b      	ldrb	r3, [r1, #2]
   82c6a:	7083      	strb	r3, [r0, #2]
   82c6c:	4660      	mov	r0, ip
   82c6e:	4770      	bx	lr

00082c70 <memmove>:
   82c70:	4288      	cmp	r0, r1
   82c72:	b5f0      	push	{r4, r5, r6, r7, lr}
   82c74:	d90d      	bls.n	82c92 <memmove+0x22>
   82c76:	188b      	adds	r3, r1, r2
   82c78:	4298      	cmp	r0, r3
   82c7a:	d20a      	bcs.n	82c92 <memmove+0x22>
   82c7c:	1881      	adds	r1, r0, r2
   82c7e:	2a00      	cmp	r2, #0
   82c80:	d054      	beq.n	82d2c <memmove+0xbc>
   82c82:	1a9a      	subs	r2, r3, r2
   82c84:	f813 4d01 	ldrb.w	r4, [r3, #-1]!
   82c88:	4293      	cmp	r3, r2
   82c8a:	f801 4d01 	strb.w	r4, [r1, #-1]!
   82c8e:	d1f9      	bne.n	82c84 <memmove+0x14>
   82c90:	bdf0      	pop	{r4, r5, r6, r7, pc}
   82c92:	2a0f      	cmp	r2, #15
   82c94:	d948      	bls.n	82d28 <memmove+0xb8>
   82c96:	ea40 0301 	orr.w	r3, r0, r1
   82c9a:	079b      	lsls	r3, r3, #30
   82c9c:	d147      	bne.n	82d2e <memmove+0xbe>
   82c9e:	4615      	mov	r5, r2
   82ca0:	f100 0410 	add.w	r4, r0, #16
   82ca4:	f101 0310 	add.w	r3, r1, #16
   82ca8:	f853 6c10 	ldr.w	r6, [r3, #-16]
   82cac:	3d10      	subs	r5, #16
   82cae:	f844 6c10 	str.w	r6, [r4, #-16]
   82cb2:	f853 6c0c 	ldr.w	r6, [r3, #-12]
   82cb6:	2d0f      	cmp	r5, #15
   82cb8:	f844 6c0c 	str.w	r6, [r4, #-12]
   82cbc:	f853 6c08 	ldr.w	r6, [r3, #-8]
   82cc0:	f104 0410 	add.w	r4, r4, #16
   82cc4:	f844 6c18 	str.w	r6, [r4, #-24]
   82cc8:	f853 6c04 	ldr.w	r6, [r3, #-4]
   82ccc:	f103 0310 	add.w	r3, r3, #16
   82cd0:	f844 6c14 	str.w	r6, [r4, #-20]
   82cd4:	d8e8      	bhi.n	82ca8 <memmove+0x38>
   82cd6:	f1a2 0310 	sub.w	r3, r2, #16
   82cda:	f023 030f 	bic.w	r3, r3, #15
   82cde:	f002 0e0f 	and.w	lr, r2, #15
   82ce2:	3310      	adds	r3, #16
   82ce4:	f1be 0f03 	cmp.w	lr, #3
   82ce8:	4419      	add	r1, r3
   82cea:	4403      	add	r3, r0
   82cec:	d921      	bls.n	82d32 <memmove+0xc2>
   82cee:	460e      	mov	r6, r1
   82cf0:	4674      	mov	r4, lr
   82cf2:	1f1d      	subs	r5, r3, #4
   82cf4:	f856 7b04 	ldr.w	r7, [r6], #4
   82cf8:	3c04      	subs	r4, #4
   82cfa:	2c03      	cmp	r4, #3
   82cfc:	f845 7f04 	str.w	r7, [r5, #4]!
   82d00:	d8f8      	bhi.n	82cf4 <memmove+0x84>
   82d02:	f1ae 0404 	sub.w	r4, lr, #4
   82d06:	f024 0403 	bic.w	r4, r4, #3
   82d0a:	3404      	adds	r4, #4
   82d0c:	4423      	add	r3, r4
   82d0e:	4421      	add	r1, r4
   82d10:	f002 0203 	and.w	r2, r2, #3
   82d14:	b152      	cbz	r2, 82d2c <memmove+0xbc>
   82d16:	3b01      	subs	r3, #1
   82d18:	440a      	add	r2, r1
   82d1a:	f811 4b01 	ldrb.w	r4, [r1], #1
   82d1e:	4291      	cmp	r1, r2
   82d20:	f803 4f01 	strb.w	r4, [r3, #1]!
   82d24:	d1f9      	bne.n	82d1a <memmove+0xaa>
   82d26:	bdf0      	pop	{r4, r5, r6, r7, pc}
   82d28:	4603      	mov	r3, r0
   82d2a:	e7f3      	b.n	82d14 <memmove+0xa4>
   82d2c:	bdf0      	pop	{r4, r5, r6, r7, pc}
   82d2e:	4603      	mov	r3, r0
   82d30:	e7f1      	b.n	82d16 <memmove+0xa6>
   82d32:	4672      	mov	r2, lr
   82d34:	e7ee      	b.n	82d14 <memmove+0xa4>
   82d36:	bf00      	nop

00082d38 <__malloc_lock>:
   82d38:	4770      	bx	lr
   82d3a:	bf00      	nop

00082d3c <__malloc_unlock>:
   82d3c:	4770      	bx	lr
   82d3e:	bf00      	nop

00082d40 <_realloc_r>:
   82d40:	e92d 4ff0 	stmdb	sp!, {r4, r5, r6, r7, r8, r9, sl, fp, lr}
   82d44:	4617      	mov	r7, r2
   82d46:	b083      	sub	sp, #12
   82d48:	460d      	mov	r5, r1
   82d4a:	2900      	cmp	r1, #0
   82d4c:	f000 80e2 	beq.w	82f14 <_realloc_r+0x1d4>
   82d50:	4681      	mov	r9, r0
   82d52:	f107 040b 	add.w	r4, r7, #11
   82d56:	f7ff ffef 	bl	82d38 <__malloc_lock>
   82d5a:	f855 3c04 	ldr.w	r3, [r5, #-4]
   82d5e:	2c16      	cmp	r4, #22
   82d60:	f023 0603 	bic.w	r6, r3, #3
   82d64:	f1a5 0808 	sub.w	r8, r5, #8
   82d68:	d84b      	bhi.n	82e02 <_realloc_r+0xc2>
   82d6a:	2210      	movs	r2, #16
   82d6c:	4614      	mov	r4, r2
   82d6e:	42a7      	cmp	r7, r4
   82d70:	d84c      	bhi.n	82e0c <_realloc_r+0xcc>
   82d72:	4296      	cmp	r6, r2
   82d74:	da51      	bge.n	82e1a <_realloc_r+0xda>
   82d76:	f8df b3a4 	ldr.w	fp, [pc, #932]	; 8311c <_realloc_r+0x3dc>
   82d7a:	eb08 0106 	add.w	r1, r8, r6
   82d7e:	f8db 0008 	ldr.w	r0, [fp, #8]
   82d82:	4288      	cmp	r0, r1
   82d84:	f000 80d3 	beq.w	82f2e <_realloc_r+0x1ee>
   82d88:	6848      	ldr	r0, [r1, #4]
   82d8a:	f020 0e01 	bic.w	lr, r0, #1
   82d8e:	448e      	add	lr, r1
   82d90:	f8de e004 	ldr.w	lr, [lr, #4]
   82d94:	f01e 0f01 	tst.w	lr, #1
   82d98:	d154      	bne.n	82e44 <_realloc_r+0x104>
   82d9a:	f020 0003 	bic.w	r0, r0, #3
   82d9e:	4430      	add	r0, r6
   82da0:	4290      	cmp	r0, r2
   82da2:	f280 80bd 	bge.w	82f20 <_realloc_r+0x1e0>
   82da6:	07db      	lsls	r3, r3, #31
   82da8:	f100 8090 	bmi.w	82ecc <_realloc_r+0x18c>
   82dac:	f855 3c08 	ldr.w	r3, [r5, #-8]
   82db0:	ebc3 0a08 	rsb	sl, r3, r8
   82db4:	f8da 3004 	ldr.w	r3, [sl, #4]
   82db8:	f023 0303 	bic.w	r3, r3, #3
   82dbc:	eb00 0e03 	add.w	lr, r0, r3
   82dc0:	4596      	cmp	lr, r2
   82dc2:	db49      	blt.n	82e58 <_realloc_r+0x118>
   82dc4:	4657      	mov	r7, sl
   82dc6:	68cb      	ldr	r3, [r1, #12]
   82dc8:	6889      	ldr	r1, [r1, #8]
   82dca:	1f32      	subs	r2, r6, #4
   82dcc:	60cb      	str	r3, [r1, #12]
   82dce:	6099      	str	r1, [r3, #8]
   82dd0:	f857 1f08 	ldr.w	r1, [r7, #8]!
   82dd4:	f8da 300c 	ldr.w	r3, [sl, #12]
   82dd8:	2a24      	cmp	r2, #36	; 0x24
   82dda:	60cb      	str	r3, [r1, #12]
   82ddc:	6099      	str	r1, [r3, #8]
   82dde:	f200 8133 	bhi.w	83048 <_realloc_r+0x308>
   82de2:	2a13      	cmp	r2, #19
   82de4:	f240 80fa 	bls.w	82fdc <_realloc_r+0x29c>
   82de8:	682b      	ldr	r3, [r5, #0]
   82dea:	2a1b      	cmp	r2, #27
   82dec:	f8ca 3008 	str.w	r3, [sl, #8]
   82df0:	686b      	ldr	r3, [r5, #4]
   82df2:	f8ca 300c 	str.w	r3, [sl, #12]
   82df6:	f200 813b 	bhi.w	83070 <_realloc_r+0x330>
   82dfa:	3508      	adds	r5, #8
   82dfc:	f10a 0310 	add.w	r3, sl, #16
   82e00:	e0ed      	b.n	82fde <_realloc_r+0x29e>
   82e02:	f024 0407 	bic.w	r4, r4, #7
   82e06:	2c00      	cmp	r4, #0
   82e08:	4622      	mov	r2, r4
   82e0a:	dab0      	bge.n	82d6e <_realloc_r+0x2e>
   82e0c:	230c      	movs	r3, #12
   82e0e:	2000      	movs	r0, #0
   82e10:	f8c9 3000 	str.w	r3, [r9]
   82e14:	b003      	add	sp, #12
   82e16:	e8bd 8ff0 	ldmia.w	sp!, {r4, r5, r6, r7, r8, r9, sl, fp, pc}
   82e1a:	462f      	mov	r7, r5
   82e1c:	1b32      	subs	r2, r6, r4
   82e1e:	2a0f      	cmp	r2, #15
   82e20:	f003 0301 	and.w	r3, r3, #1
   82e24:	d840      	bhi.n	82ea8 <_realloc_r+0x168>
   82e26:	4333      	orrs	r3, r6
   82e28:	f8c8 3004 	str.w	r3, [r8, #4]
   82e2c:	4446      	add	r6, r8
   82e2e:	6873      	ldr	r3, [r6, #4]
   82e30:	f043 0301 	orr.w	r3, r3, #1
   82e34:	6073      	str	r3, [r6, #4]
   82e36:	4648      	mov	r0, r9
   82e38:	f7ff ff80 	bl	82d3c <__malloc_unlock>
   82e3c:	4638      	mov	r0, r7
   82e3e:	b003      	add	sp, #12
   82e40:	e8bd 8ff0 	ldmia.w	sp!, {r4, r5, r6, r7, r8, r9, sl, fp, pc}
   82e44:	07d9      	lsls	r1, r3, #31
   82e46:	d441      	bmi.n	82ecc <_realloc_r+0x18c>
   82e48:	f855 3c08 	ldr.w	r3, [r5, #-8]
   82e4c:	ebc3 0a08 	rsb	sl, r3, r8
   82e50:	f8da 3004 	ldr.w	r3, [sl, #4]
   82e54:	f023 0303 	bic.w	r3, r3, #3
   82e58:	4433      	add	r3, r6
   82e5a:	4293      	cmp	r3, r2
   82e5c:	db36      	blt.n	82ecc <_realloc_r+0x18c>
   82e5e:	4657      	mov	r7, sl
   82e60:	f8da 100c 	ldr.w	r1, [sl, #12]
   82e64:	f857 0f08 	ldr.w	r0, [r7, #8]!
   82e68:	1f32      	subs	r2, r6, #4
   82e6a:	2a24      	cmp	r2, #36	; 0x24
   82e6c:	60c1      	str	r1, [r0, #12]
   82e6e:	6088      	str	r0, [r1, #8]
   82e70:	f200 80f5 	bhi.w	8305e <_realloc_r+0x31e>
   82e74:	2a13      	cmp	r2, #19
   82e76:	f240 80f0 	bls.w	8305a <_realloc_r+0x31a>
   82e7a:	6829      	ldr	r1, [r5, #0]
   82e7c:	2a1b      	cmp	r2, #27
   82e7e:	f8ca 1008 	str.w	r1, [sl, #8]
   82e82:	6869      	ldr	r1, [r5, #4]
   82e84:	f8ca 100c 	str.w	r1, [sl, #12]
   82e88:	f200 8107 	bhi.w	8309a <_realloc_r+0x35a>
   82e8c:	3508      	adds	r5, #8
   82e8e:	f10a 0210 	add.w	r2, sl, #16
   82e92:	6829      	ldr	r1, [r5, #0]
   82e94:	461e      	mov	r6, r3
   82e96:	6011      	str	r1, [r2, #0]
   82e98:	6869      	ldr	r1, [r5, #4]
   82e9a:	46d0      	mov	r8, sl
   82e9c:	6051      	str	r1, [r2, #4]
   82e9e:	68ab      	ldr	r3, [r5, #8]
   82ea0:	6093      	str	r3, [r2, #8]
   82ea2:	f8da 3004 	ldr.w	r3, [sl, #4]
   82ea6:	e7b9      	b.n	82e1c <_realloc_r+0xdc>
   82ea8:	eb08 0104 	add.w	r1, r8, r4
   82eac:	4323      	orrs	r3, r4
   82eae:	f042 0001 	orr.w	r0, r2, #1
   82eb2:	f8c8 3004 	str.w	r3, [r8, #4]
   82eb6:	440a      	add	r2, r1
   82eb8:	6048      	str	r0, [r1, #4]
   82eba:	6853      	ldr	r3, [r2, #4]
   82ebc:	3108      	adds	r1, #8
   82ebe:	f043 0301 	orr.w	r3, r3, #1
   82ec2:	6053      	str	r3, [r2, #4]
   82ec4:	4648      	mov	r0, r9
   82ec6:	f7ff f87b 	bl	81fc0 <_free_r>
   82eca:	e7b4      	b.n	82e36 <_realloc_r+0xf6>
   82ecc:	4639      	mov	r1, r7
   82ece:	4648      	mov	r0, r9
   82ed0:	f7ff fb88 	bl	825e4 <_malloc_r>
   82ed4:	4607      	mov	r7, r0
   82ed6:	2800      	cmp	r0, #0
   82ed8:	d0ad      	beq.n	82e36 <_realloc_r+0xf6>
   82eda:	f855 3c04 	ldr.w	r3, [r5, #-4]
   82ede:	f1a0 0108 	sub.w	r1, r0, #8
   82ee2:	f023 0201 	bic.w	r2, r3, #1
   82ee6:	4442      	add	r2, r8
   82ee8:	4291      	cmp	r1, r2
   82eea:	f000 80a6 	beq.w	8303a <_realloc_r+0x2fa>
   82eee:	1f32      	subs	r2, r6, #4
   82ef0:	2a24      	cmp	r2, #36	; 0x24
   82ef2:	f200 8093 	bhi.w	8301c <_realloc_r+0x2dc>
   82ef6:	2a13      	cmp	r2, #19
   82ef8:	d865      	bhi.n	82fc6 <_realloc_r+0x286>
   82efa:	4603      	mov	r3, r0
   82efc:	462a      	mov	r2, r5
   82efe:	6811      	ldr	r1, [r2, #0]
   82f00:	6019      	str	r1, [r3, #0]
   82f02:	6851      	ldr	r1, [r2, #4]
   82f04:	6059      	str	r1, [r3, #4]
   82f06:	6892      	ldr	r2, [r2, #8]
   82f08:	609a      	str	r2, [r3, #8]
   82f0a:	4629      	mov	r1, r5
   82f0c:	4648      	mov	r0, r9
   82f0e:	f7ff f857 	bl	81fc0 <_free_r>
   82f12:	e790      	b.n	82e36 <_realloc_r+0xf6>
   82f14:	4611      	mov	r1, r2
   82f16:	b003      	add	sp, #12
   82f18:	e8bd 4ff0 	ldmia.w	sp!, {r4, r5, r6, r7, r8, r9, sl, fp, lr}
   82f1c:	f7ff bb62 	b.w	825e4 <_malloc_r>
   82f20:	68ca      	ldr	r2, [r1, #12]
   82f22:	6889      	ldr	r1, [r1, #8]
   82f24:	462f      	mov	r7, r5
   82f26:	60ca      	str	r2, [r1, #12]
   82f28:	4606      	mov	r6, r0
   82f2a:	6091      	str	r1, [r2, #8]
   82f2c:	e776      	b.n	82e1c <_realloc_r+0xdc>
   82f2e:	6841      	ldr	r1, [r0, #4]
   82f30:	f104 0010 	add.w	r0, r4, #16
   82f34:	f021 0103 	bic.w	r1, r1, #3
   82f38:	4431      	add	r1, r6
   82f3a:	4281      	cmp	r1, r0
   82f3c:	da5a      	bge.n	82ff4 <_realloc_r+0x2b4>
   82f3e:	07db      	lsls	r3, r3, #31
   82f40:	d4c4      	bmi.n	82ecc <_realloc_r+0x18c>
   82f42:	f855 3c08 	ldr.w	r3, [r5, #-8]
   82f46:	ebc3 0a08 	rsb	sl, r3, r8
   82f4a:	f8da 3004 	ldr.w	r3, [sl, #4]
   82f4e:	f023 0303 	bic.w	r3, r3, #3
   82f52:	eb01 0c03 	add.w	ip, r1, r3
   82f56:	4560      	cmp	r0, ip
   82f58:	f73f af7e 	bgt.w	82e58 <_realloc_r+0x118>
   82f5c:	4657      	mov	r7, sl
   82f5e:	f8da 300c 	ldr.w	r3, [sl, #12]
   82f62:	f857 1f08 	ldr.w	r1, [r7, #8]!
   82f66:	1f32      	subs	r2, r6, #4
   82f68:	2a24      	cmp	r2, #36	; 0x24
   82f6a:	60cb      	str	r3, [r1, #12]
   82f6c:	6099      	str	r1, [r3, #8]
   82f6e:	f200 80b6 	bhi.w	830de <_realloc_r+0x39e>
   82f72:	2a13      	cmp	r2, #19
   82f74:	f240 80a7 	bls.w	830c6 <_realloc_r+0x386>
   82f78:	682b      	ldr	r3, [r5, #0]
   82f7a:	2a1b      	cmp	r2, #27
   82f7c:	f8ca 3008 	str.w	r3, [sl, #8]
   82f80:	686b      	ldr	r3, [r5, #4]
   82f82:	f8ca 300c 	str.w	r3, [sl, #12]
   82f86:	f200 80b3 	bhi.w	830f0 <_realloc_r+0x3b0>
   82f8a:	3508      	adds	r5, #8
   82f8c:	f10a 0310 	add.w	r3, sl, #16
   82f90:	682a      	ldr	r2, [r5, #0]
   82f92:	601a      	str	r2, [r3, #0]
   82f94:	686a      	ldr	r2, [r5, #4]
   82f96:	605a      	str	r2, [r3, #4]
   82f98:	68aa      	ldr	r2, [r5, #8]
   82f9a:	609a      	str	r2, [r3, #8]
   82f9c:	ebc4 030c 	rsb	r3, r4, ip
   82fa0:	eb0a 0204 	add.w	r2, sl, r4
   82fa4:	f043 0301 	orr.w	r3, r3, #1
   82fa8:	f8cb 2008 	str.w	r2, [fp, #8]
   82fac:	6053      	str	r3, [r2, #4]
   82fae:	f8da 3004 	ldr.w	r3, [sl, #4]
   82fb2:	4648      	mov	r0, r9
   82fb4:	f003 0301 	and.w	r3, r3, #1
   82fb8:	431c      	orrs	r4, r3
   82fba:	f8ca 4004 	str.w	r4, [sl, #4]
   82fbe:	f7ff febd 	bl	82d3c <__malloc_unlock>
   82fc2:	4638      	mov	r0, r7
   82fc4:	e73b      	b.n	82e3e <_realloc_r+0xfe>
   82fc6:	682b      	ldr	r3, [r5, #0]
   82fc8:	2a1b      	cmp	r2, #27
   82fca:	6003      	str	r3, [r0, #0]
   82fcc:	686b      	ldr	r3, [r5, #4]
   82fce:	6043      	str	r3, [r0, #4]
   82fd0:	d828      	bhi.n	83024 <_realloc_r+0x2e4>
   82fd2:	f100 0308 	add.w	r3, r0, #8
   82fd6:	f105 0208 	add.w	r2, r5, #8
   82fda:	e790      	b.n	82efe <_realloc_r+0x1be>
   82fdc:	463b      	mov	r3, r7
   82fde:	682a      	ldr	r2, [r5, #0]
   82fe0:	4676      	mov	r6, lr
   82fe2:	601a      	str	r2, [r3, #0]
   82fe4:	686a      	ldr	r2, [r5, #4]
   82fe6:	46d0      	mov	r8, sl
   82fe8:	605a      	str	r2, [r3, #4]
   82fea:	68aa      	ldr	r2, [r5, #8]
   82fec:	609a      	str	r2, [r3, #8]
   82fee:	f8da 3004 	ldr.w	r3, [sl, #4]
   82ff2:	e713      	b.n	82e1c <_realloc_r+0xdc>
   82ff4:	1b0b      	subs	r3, r1, r4
   82ff6:	eb08 0204 	add.w	r2, r8, r4
   82ffa:	f043 0301 	orr.w	r3, r3, #1
   82ffe:	f8cb 2008 	str.w	r2, [fp, #8]
   83002:	6053      	str	r3, [r2, #4]
   83004:	f855 3c04 	ldr.w	r3, [r5, #-4]
   83008:	4648      	mov	r0, r9
   8300a:	f003 0301 	and.w	r3, r3, #1
   8300e:	431c      	orrs	r4, r3
   83010:	f845 4c04 	str.w	r4, [r5, #-4]
   83014:	f7ff fe92 	bl	82d3c <__malloc_unlock>
   83018:	4628      	mov	r0, r5
   8301a:	e710      	b.n	82e3e <_realloc_r+0xfe>
   8301c:	4629      	mov	r1, r5
   8301e:	f7ff fe27 	bl	82c70 <memmove>
   83022:	e772      	b.n	82f0a <_realloc_r+0x1ca>
   83024:	68ab      	ldr	r3, [r5, #8]
   83026:	2a24      	cmp	r2, #36	; 0x24
   83028:	6083      	str	r3, [r0, #8]
   8302a:	68eb      	ldr	r3, [r5, #12]
   8302c:	60c3      	str	r3, [r0, #12]
   8302e:	d02b      	beq.n	83088 <_realloc_r+0x348>
   83030:	f100 0310 	add.w	r3, r0, #16
   83034:	f105 0210 	add.w	r2, r5, #16
   83038:	e761      	b.n	82efe <_realloc_r+0x1be>
   8303a:	f850 2c04 	ldr.w	r2, [r0, #-4]
   8303e:	462f      	mov	r7, r5
   83040:	f022 0203 	bic.w	r2, r2, #3
   83044:	4416      	add	r6, r2
   83046:	e6e9      	b.n	82e1c <_realloc_r+0xdc>
   83048:	4629      	mov	r1, r5
   8304a:	4638      	mov	r0, r7
   8304c:	4676      	mov	r6, lr
   8304e:	46d0      	mov	r8, sl
   83050:	f7ff fe0e 	bl	82c70 <memmove>
   83054:	f8da 3004 	ldr.w	r3, [sl, #4]
   83058:	e6e0      	b.n	82e1c <_realloc_r+0xdc>
   8305a:	463a      	mov	r2, r7
   8305c:	e719      	b.n	82e92 <_realloc_r+0x152>
   8305e:	4629      	mov	r1, r5
   83060:	4638      	mov	r0, r7
   83062:	461e      	mov	r6, r3
   83064:	46d0      	mov	r8, sl
   83066:	f7ff fe03 	bl	82c70 <memmove>
   8306a:	f8da 3004 	ldr.w	r3, [sl, #4]
   8306e:	e6d5      	b.n	82e1c <_realloc_r+0xdc>
   83070:	68ab      	ldr	r3, [r5, #8]
   83072:	2a24      	cmp	r2, #36	; 0x24
   83074:	f8ca 3010 	str.w	r3, [sl, #16]
   83078:	68eb      	ldr	r3, [r5, #12]
   8307a:	f8ca 3014 	str.w	r3, [sl, #20]
   8307e:	d018      	beq.n	830b2 <_realloc_r+0x372>
   83080:	3510      	adds	r5, #16
   83082:	f10a 0318 	add.w	r3, sl, #24
   83086:	e7aa      	b.n	82fde <_realloc_r+0x29e>
   83088:	692a      	ldr	r2, [r5, #16]
   8308a:	f100 0318 	add.w	r3, r0, #24
   8308e:	6102      	str	r2, [r0, #16]
   83090:	6969      	ldr	r1, [r5, #20]
   83092:	f105 0218 	add.w	r2, r5, #24
   83096:	6141      	str	r1, [r0, #20]
   83098:	e731      	b.n	82efe <_realloc_r+0x1be>
   8309a:	68a9      	ldr	r1, [r5, #8]
   8309c:	2a24      	cmp	r2, #36	; 0x24
   8309e:	f8ca 1010 	str.w	r1, [sl, #16]
   830a2:	68e9      	ldr	r1, [r5, #12]
   830a4:	f8ca 1014 	str.w	r1, [sl, #20]
   830a8:	d00f      	beq.n	830ca <_realloc_r+0x38a>
   830aa:	3510      	adds	r5, #16
   830ac:	f10a 0218 	add.w	r2, sl, #24
   830b0:	e6ef      	b.n	82e92 <_realloc_r+0x152>
   830b2:	692a      	ldr	r2, [r5, #16]
   830b4:	f10a 0320 	add.w	r3, sl, #32
   830b8:	f8ca 2018 	str.w	r2, [sl, #24]
   830bc:	696a      	ldr	r2, [r5, #20]
   830be:	3518      	adds	r5, #24
   830c0:	f8ca 201c 	str.w	r2, [sl, #28]
   830c4:	e78b      	b.n	82fde <_realloc_r+0x29e>
   830c6:	463b      	mov	r3, r7
   830c8:	e762      	b.n	82f90 <_realloc_r+0x250>
   830ca:	6929      	ldr	r1, [r5, #16]
   830cc:	f10a 0220 	add.w	r2, sl, #32
   830d0:	f8ca 1018 	str.w	r1, [sl, #24]
   830d4:	6969      	ldr	r1, [r5, #20]
   830d6:	3518      	adds	r5, #24
   830d8:	f8ca 101c 	str.w	r1, [sl, #28]
   830dc:	e6d9      	b.n	82e92 <_realloc_r+0x152>
   830de:	4629      	mov	r1, r5
   830e0:	4638      	mov	r0, r7
   830e2:	f8cd c004 	str.w	ip, [sp, #4]
   830e6:	f7ff fdc3 	bl	82c70 <memmove>
   830ea:	f8dd c004 	ldr.w	ip, [sp, #4]
   830ee:	e755      	b.n	82f9c <_realloc_r+0x25c>
   830f0:	68ab      	ldr	r3, [r5, #8]
   830f2:	2a24      	cmp	r2, #36	; 0x24
   830f4:	f8ca 3010 	str.w	r3, [sl, #16]
   830f8:	68eb      	ldr	r3, [r5, #12]
   830fa:	f8ca 3014 	str.w	r3, [sl, #20]
   830fe:	d003      	beq.n	83108 <_realloc_r+0x3c8>
   83100:	3510      	adds	r5, #16
   83102:	f10a 0318 	add.w	r3, sl, #24
   83106:	e743      	b.n	82f90 <_realloc_r+0x250>
   83108:	692a      	ldr	r2, [r5, #16]
   8310a:	f10a 0320 	add.w	r3, sl, #32
   8310e:	f8ca 2018 	str.w	r2, [sl, #24]
   83112:	696a      	ldr	r2, [r5, #20]
   83114:	3518      	adds	r5, #24
   83116:	f8ca 201c 	str.w	r2, [sl, #28]
   8311a:	e739      	b.n	82f90 <_realloc_r+0x250>
   8311c:	20070548 	.word	0x20070548

00083120 <_sbrk_r>:
   83120:	b538      	push	{r3, r4, r5, lr}
   83122:	4c07      	ldr	r4, [pc, #28]	; (83140 <_sbrk_r+0x20>)
   83124:	2300      	movs	r3, #0
   83126:	4605      	mov	r5, r0
   83128:	4608      	mov	r0, r1
   8312a:	6023      	str	r3, [r4, #0]
   8312c:	f7fd fbec 	bl	80908 <_sbrk>
   83130:	1c43      	adds	r3, r0, #1
   83132:	d000      	beq.n	83136 <_sbrk_r+0x16>
   83134:	bd38      	pop	{r3, r4, r5, pc}
   83136:	6823      	ldr	r3, [r4, #0]
   83138:	2b00      	cmp	r3, #0
   8313a:	d0fb      	beq.n	83134 <_sbrk_r+0x14>
   8313c:	602b      	str	r3, [r5, #0]
   8313e:	bd38      	pop	{r3, r4, r5, pc}
   83140:	20070a30 	.word	0x20070a30

00083144 <__sread>:
   83144:	b510      	push	{r4, lr}
   83146:	460c      	mov	r4, r1
   83148:	f9b1 100e 	ldrsh.w	r1, [r1, #14]
   8314c:	f000 f9ea 	bl	83524 <_read_r>
   83150:	2800      	cmp	r0, #0
   83152:	db03      	blt.n	8315c <__sread+0x18>
   83154:	6d23      	ldr	r3, [r4, #80]	; 0x50
   83156:	4403      	add	r3, r0
   83158:	6523      	str	r3, [r4, #80]	; 0x50
   8315a:	bd10      	pop	{r4, pc}
   8315c:	89a3      	ldrh	r3, [r4, #12]
   8315e:	f423 5380 	bic.w	r3, r3, #4096	; 0x1000
   83162:	81a3      	strh	r3, [r4, #12]
   83164:	bd10      	pop	{r4, pc}
   83166:	bf00      	nop

00083168 <__swrite>:
   83168:	e92d 41f0 	stmdb	sp!, {r4, r5, r6, r7, r8, lr}
   8316c:	460c      	mov	r4, r1
   8316e:	8989      	ldrh	r1, [r1, #12]
   83170:	461d      	mov	r5, r3
   83172:	05cb      	lsls	r3, r1, #23
   83174:	4616      	mov	r6, r2
   83176:	4607      	mov	r7, r0
   83178:	d506      	bpl.n	83188 <__swrite+0x20>
   8317a:	f9b4 100e 	ldrsh.w	r1, [r4, #14]
   8317e:	2200      	movs	r2, #0
   83180:	2302      	movs	r3, #2
   83182:	f000 f9bb 	bl	834fc <_lseek_r>
   83186:	89a1      	ldrh	r1, [r4, #12]
   83188:	f421 5180 	bic.w	r1, r1, #4096	; 0x1000
   8318c:	81a1      	strh	r1, [r4, #12]
   8318e:	4638      	mov	r0, r7
   83190:	f9b4 100e 	ldrsh.w	r1, [r4, #14]
   83194:	4632      	mov	r2, r6
   83196:	462b      	mov	r3, r5
   83198:	e8bd 41f0 	ldmia.w	sp!, {r4, r5, r6, r7, r8, lr}
   8319c:	f000 b8ce 	b.w	8333c <_write_r>

000831a0 <__sseek>:
   831a0:	b510      	push	{r4, lr}
   831a2:	460c      	mov	r4, r1
   831a4:	f9b1 100e 	ldrsh.w	r1, [r1, #14]
   831a8:	f000 f9a8 	bl	834fc <_lseek_r>
   831ac:	89a3      	ldrh	r3, [r4, #12]
   831ae:	1c42      	adds	r2, r0, #1
   831b0:	bf0e      	itee	eq
   831b2:	f423 5380 	biceq.w	r3, r3, #4096	; 0x1000
   831b6:	f443 5380 	orrne.w	r3, r3, #4096	; 0x1000
   831ba:	6520      	strne	r0, [r4, #80]	; 0x50
   831bc:	81a3      	strh	r3, [r4, #12]
   831be:	bd10      	pop	{r4, pc}

000831c0 <__sclose>:
   831c0:	f9b1 100e 	ldrsh.w	r1, [r1, #14]
   831c4:	f000 b920 	b.w	83408 <_close_r>

000831c8 <strlen>:
   831c8:	f020 0103 	bic.w	r1, r0, #3
   831cc:	f010 0003 	ands.w	r0, r0, #3
   831d0:	f1c0 0000 	rsb	r0, r0, #0
   831d4:	f851 3b04 	ldr.w	r3, [r1], #4
   831d8:	f100 0c04 	add.w	ip, r0, #4
   831dc:	ea4f 0ccc 	mov.w	ip, ip, lsl #3
   831e0:	f06f 0200 	mvn.w	r2, #0
   831e4:	bf1c      	itt	ne
   831e6:	fa22 f20c 	lsrne.w	r2, r2, ip
   831ea:	4313      	orrne	r3, r2
   831ec:	f04f 0c01 	mov.w	ip, #1
   831f0:	ea4c 2c0c 	orr.w	ip, ip, ip, lsl #8
   831f4:	ea4c 4c0c 	orr.w	ip, ip, ip, lsl #16
   831f8:	eba3 020c 	sub.w	r2, r3, ip
   831fc:	ea22 0203 	bic.w	r2, r2, r3
   83200:	ea12 12cc 	ands.w	r2, r2, ip, lsl #7
   83204:	bf04      	itt	eq
   83206:	f851 3b04 	ldreq.w	r3, [r1], #4
   8320a:	3004      	addeq	r0, #4
   8320c:	d0f4      	beq.n	831f8 <strlen+0x30>
   8320e:	f1c2 0100 	rsb	r1, r2, #0
   83212:	ea02 0201 	and.w	r2, r2, r1
   83216:	fab2 f282 	clz	r2, r2
   8321a:	f1c2 021f 	rsb	r2, r2, #31
   8321e:	eb00 00d2 	add.w	r0, r0, r2, lsr #3
   83222:	4770      	bx	lr

00083224 <__swbuf_r>:
   83224:	b570      	push	{r4, r5, r6, lr}
   83226:	460d      	mov	r5, r1
   83228:	4614      	mov	r4, r2
   8322a:	4606      	mov	r6, r0
   8322c:	b110      	cbz	r0, 83234 <__swbuf_r+0x10>
   8322e:	6b83      	ldr	r3, [r0, #56]	; 0x38
   83230:	2b00      	cmp	r3, #0
   83232:	d048      	beq.n	832c6 <__swbuf_r+0xa2>
   83234:	89a2      	ldrh	r2, [r4, #12]
   83236:	69a3      	ldr	r3, [r4, #24]
   83238:	b291      	uxth	r1, r2
   8323a:	0708      	lsls	r0, r1, #28
   8323c:	60a3      	str	r3, [r4, #8]
   8323e:	d538      	bpl.n	832b2 <__swbuf_r+0x8e>
   83240:	6923      	ldr	r3, [r4, #16]
   83242:	2b00      	cmp	r3, #0
   83244:	d035      	beq.n	832b2 <__swbuf_r+0x8e>
   83246:	0489      	lsls	r1, r1, #18
   83248:	b2ed      	uxtb	r5, r5
   8324a:	d515      	bpl.n	83278 <__swbuf_r+0x54>
   8324c:	6822      	ldr	r2, [r4, #0]
   8324e:	6961      	ldr	r1, [r4, #20]
   83250:	1ad3      	subs	r3, r2, r3
   83252:	428b      	cmp	r3, r1
   83254:	da1c      	bge.n	83290 <__swbuf_r+0x6c>
   83256:	3301      	adds	r3, #1
   83258:	68a1      	ldr	r1, [r4, #8]
   8325a:	1c50      	adds	r0, r2, #1
   8325c:	3901      	subs	r1, #1
   8325e:	60a1      	str	r1, [r4, #8]
   83260:	6020      	str	r0, [r4, #0]
   83262:	7015      	strb	r5, [r2, #0]
   83264:	6962      	ldr	r2, [r4, #20]
   83266:	429a      	cmp	r2, r3
   83268:	d01a      	beq.n	832a0 <__swbuf_r+0x7c>
   8326a:	89a3      	ldrh	r3, [r4, #12]
   8326c:	07db      	lsls	r3, r3, #31
   8326e:	d501      	bpl.n	83274 <__swbuf_r+0x50>
   83270:	2d0a      	cmp	r5, #10
   83272:	d015      	beq.n	832a0 <__swbuf_r+0x7c>
   83274:	4628      	mov	r0, r5
   83276:	bd70      	pop	{r4, r5, r6, pc}
   83278:	6e61      	ldr	r1, [r4, #100]	; 0x64
   8327a:	f442 5200 	orr.w	r2, r2, #8192	; 0x2000
   8327e:	f421 5100 	bic.w	r1, r1, #8192	; 0x2000
   83282:	81a2      	strh	r2, [r4, #12]
   83284:	6822      	ldr	r2, [r4, #0]
   83286:	6661      	str	r1, [r4, #100]	; 0x64
   83288:	6961      	ldr	r1, [r4, #20]
   8328a:	1ad3      	subs	r3, r2, r3
   8328c:	428b      	cmp	r3, r1
   8328e:	dbe2      	blt.n	83256 <__swbuf_r+0x32>
   83290:	4630      	mov	r0, r6
   83292:	4621      	mov	r1, r4
   83294:	f7fe fd28 	bl	81ce8 <_fflush_r>
   83298:	b940      	cbnz	r0, 832ac <__swbuf_r+0x88>
   8329a:	6822      	ldr	r2, [r4, #0]
   8329c:	2301      	movs	r3, #1
   8329e:	e7db      	b.n	83258 <__swbuf_r+0x34>
   832a0:	4630      	mov	r0, r6
   832a2:	4621      	mov	r1, r4
   832a4:	f7fe fd20 	bl	81ce8 <_fflush_r>
   832a8:	2800      	cmp	r0, #0
   832aa:	d0e3      	beq.n	83274 <__swbuf_r+0x50>
   832ac:	f04f 30ff 	mov.w	r0, #4294967295
   832b0:	bd70      	pop	{r4, r5, r6, pc}
   832b2:	4630      	mov	r0, r6
   832b4:	4621      	mov	r1, r4
   832b6:	f7fe fc01 	bl	81abc <__swsetup_r>
   832ba:	2800      	cmp	r0, #0
   832bc:	d1f6      	bne.n	832ac <__swbuf_r+0x88>
   832be:	89a2      	ldrh	r2, [r4, #12]
   832c0:	6923      	ldr	r3, [r4, #16]
   832c2:	b291      	uxth	r1, r2
   832c4:	e7bf      	b.n	83246 <__swbuf_r+0x22>
   832c6:	f7fe fda3 	bl	81e10 <__sinit>
   832ca:	e7b3      	b.n	83234 <__swbuf_r+0x10>

000832cc <_wcrtomb_r>:
   832cc:	e92d 41f0 	stmdb	sp!, {r4, r5, r6, r7, r8, lr}
   832d0:	4605      	mov	r5, r0
   832d2:	b086      	sub	sp, #24
   832d4:	461e      	mov	r6, r3
   832d6:	460c      	mov	r4, r1
   832d8:	b1a1      	cbz	r1, 83304 <_wcrtomb_r+0x38>
   832da:	4b10      	ldr	r3, [pc, #64]	; (8331c <_wcrtomb_r+0x50>)
   832dc:	4617      	mov	r7, r2
   832de:	f8d3 8000 	ldr.w	r8, [r3]
   832e2:	f7ff f8fd 	bl	824e0 <__locale_charset>
   832e6:	9600      	str	r6, [sp, #0]
   832e8:	4603      	mov	r3, r0
   832ea:	4621      	mov	r1, r4
   832ec:	463a      	mov	r2, r7
   832ee:	4628      	mov	r0, r5
   832f0:	47c0      	blx	r8
   832f2:	1c43      	adds	r3, r0, #1
   832f4:	d103      	bne.n	832fe <_wcrtomb_r+0x32>
   832f6:	2200      	movs	r2, #0
   832f8:	238a      	movs	r3, #138	; 0x8a
   832fa:	6032      	str	r2, [r6, #0]
   832fc:	602b      	str	r3, [r5, #0]
   832fe:	b006      	add	sp, #24
   83300:	e8bd 81f0 	ldmia.w	sp!, {r4, r5, r6, r7, r8, pc}
   83304:	4b05      	ldr	r3, [pc, #20]	; (8331c <_wcrtomb_r+0x50>)
   83306:	681f      	ldr	r7, [r3, #0]
   83308:	f7ff f8ea 	bl	824e0 <__locale_charset>
   8330c:	9600      	str	r6, [sp, #0]
   8330e:	4603      	mov	r3, r0
   83310:	4622      	mov	r2, r4
   83312:	4628      	mov	r0, r5
   83314:	a903      	add	r1, sp, #12
   83316:	47b8      	blx	r7
   83318:	e7eb      	b.n	832f2 <_wcrtomb_r+0x26>
   8331a:	bf00      	nop
   8331c:	20070958 	.word	0x20070958

00083320 <__ascii_wctomb>:
   83320:	b121      	cbz	r1, 8332c <__ascii_wctomb+0xc>
   83322:	2aff      	cmp	r2, #255	; 0xff
   83324:	d804      	bhi.n	83330 <__ascii_wctomb+0x10>
   83326:	700a      	strb	r2, [r1, #0]
   83328:	2001      	movs	r0, #1
   8332a:	4770      	bx	lr
   8332c:	4608      	mov	r0, r1
   8332e:	4770      	bx	lr
   83330:	238a      	movs	r3, #138	; 0x8a
   83332:	6003      	str	r3, [r0, #0]
   83334:	f04f 30ff 	mov.w	r0, #4294967295
   83338:	4770      	bx	lr
   8333a:	bf00      	nop

0008333c <_write_r>:
   8333c:	b570      	push	{r4, r5, r6, lr}
   8333e:	4c08      	ldr	r4, [pc, #32]	; (83360 <_write_r+0x24>)
   83340:	4606      	mov	r6, r0
   83342:	2500      	movs	r5, #0
   83344:	4608      	mov	r0, r1
   83346:	4611      	mov	r1, r2
   83348:	461a      	mov	r2, r3
   8334a:	6025      	str	r5, [r4, #0]
   8334c:	f7fc ff2e 	bl	801ac <_write>
   83350:	1c43      	adds	r3, r0, #1
   83352:	d000      	beq.n	83356 <_write_r+0x1a>
   83354:	bd70      	pop	{r4, r5, r6, pc}
   83356:	6823      	ldr	r3, [r4, #0]
   83358:	2b00      	cmp	r3, #0
   8335a:	d0fb      	beq.n	83354 <_write_r+0x18>
   8335c:	6033      	str	r3, [r6, #0]
   8335e:	bd70      	pop	{r4, r5, r6, pc}
   83360:	20070a30 	.word	0x20070a30

00083364 <__register_exitproc>:
   83364:	e92d 47f0 	stmdb	sp!, {r4, r5, r6, r7, r8, r9, sl, lr}
   83368:	4c25      	ldr	r4, [pc, #148]	; (83400 <__register_exitproc+0x9c>)
   8336a:	4606      	mov	r6, r0
   8336c:	6825      	ldr	r5, [r4, #0]
   8336e:	4688      	mov	r8, r1
   83370:	f8d5 4148 	ldr.w	r4, [r5, #328]	; 0x148
   83374:	4692      	mov	sl, r2
   83376:	4699      	mov	r9, r3
   83378:	b3c4      	cbz	r4, 833ec <__register_exitproc+0x88>
   8337a:	6860      	ldr	r0, [r4, #4]
   8337c:	281f      	cmp	r0, #31
   8337e:	dc17      	bgt.n	833b0 <__register_exitproc+0x4c>
   83380:	1c41      	adds	r1, r0, #1
   83382:	b176      	cbz	r6, 833a2 <__register_exitproc+0x3e>
   83384:	eb04 0380 	add.w	r3, r4, r0, lsl #2
   83388:	f8c3 a088 	str.w	sl, [r3, #136]	; 0x88
   8338c:	f8d4 5188 	ldr.w	r5, [r4, #392]	; 0x188
   83390:	2201      	movs	r2, #1
   83392:	4082      	lsls	r2, r0
   83394:	4315      	orrs	r5, r2
   83396:	2e02      	cmp	r6, #2
   83398:	f8c4 5188 	str.w	r5, [r4, #392]	; 0x188
   8339c:	f8c3 9108 	str.w	r9, [r3, #264]	; 0x108
   833a0:	d01e      	beq.n	833e0 <__register_exitproc+0x7c>
   833a2:	1c83      	adds	r3, r0, #2
   833a4:	6061      	str	r1, [r4, #4]
   833a6:	2000      	movs	r0, #0
   833a8:	f844 8023 	str.w	r8, [r4, r3, lsl #2]
   833ac:	e8bd 87f0 	ldmia.w	sp!, {r4, r5, r6, r7, r8, r9, sl, pc}
   833b0:	4b14      	ldr	r3, [pc, #80]	; (83404 <__register_exitproc+0xa0>)
   833b2:	b303      	cbz	r3, 833f6 <__register_exitproc+0x92>
   833b4:	f44f 70c8 	mov.w	r0, #400	; 0x190
   833b8:	f7ff f90c 	bl	825d4 <malloc>
   833bc:	4604      	mov	r4, r0
   833be:	b1d0      	cbz	r0, 833f6 <__register_exitproc+0x92>
   833c0:	f8d5 3148 	ldr.w	r3, [r5, #328]	; 0x148
   833c4:	2700      	movs	r7, #0
   833c6:	e884 0088 	stmia.w	r4, {r3, r7}
   833ca:	4638      	mov	r0, r7
   833cc:	f8c5 4148 	str.w	r4, [r5, #328]	; 0x148
   833d0:	2101      	movs	r1, #1
   833d2:	f8c4 7188 	str.w	r7, [r4, #392]	; 0x188
   833d6:	f8c4 718c 	str.w	r7, [r4, #396]	; 0x18c
   833da:	2e00      	cmp	r6, #0
   833dc:	d0e1      	beq.n	833a2 <__register_exitproc+0x3e>
   833de:	e7d1      	b.n	83384 <__register_exitproc+0x20>
   833e0:	f8d4 318c 	ldr.w	r3, [r4, #396]	; 0x18c
   833e4:	431a      	orrs	r2, r3
   833e6:	f8c4 218c 	str.w	r2, [r4, #396]	; 0x18c
   833ea:	e7da      	b.n	833a2 <__register_exitproc+0x3e>
   833ec:	f505 74a6 	add.w	r4, r5, #332	; 0x14c
   833f0:	f8c5 4148 	str.w	r4, [r5, #328]	; 0x148
   833f4:	e7c1      	b.n	8337a <__register_exitproc+0x16>
   833f6:	f04f 30ff 	mov.w	r0, #4294967295
   833fa:	e8bd 87f0 	ldmia.w	sp!, {r4, r5, r6, r7, r8, r9, sl, pc}
   833fe:	bf00      	nop
   83400:	00083b28 	.word	0x00083b28
   83404:	000825d5 	.word	0x000825d5

00083408 <_close_r>:
   83408:	b538      	push	{r3, r4, r5, lr}
   8340a:	4c07      	ldr	r4, [pc, #28]	; (83428 <_close_r+0x20>)
   8340c:	2300      	movs	r3, #0
   8340e:	4605      	mov	r5, r0
   83410:	4608      	mov	r0, r1
   83412:	6023      	str	r3, [r4, #0]
   83414:	f7fd fa8e 	bl	80934 <_close>
   83418:	1c43      	adds	r3, r0, #1
   8341a:	d000      	beq.n	8341e <_close_r+0x16>
   8341c:	bd38      	pop	{r3, r4, r5, pc}
   8341e:	6823      	ldr	r3, [r4, #0]
   83420:	2b00      	cmp	r3, #0
   83422:	d0fb      	beq.n	8341c <_close_r+0x14>
   83424:	602b      	str	r3, [r5, #0]
   83426:	bd38      	pop	{r3, r4, r5, pc}
   83428:	20070a30 	.word	0x20070a30

0008342c <_fclose_r>:
   8342c:	2900      	cmp	r1, #0
   8342e:	d03d      	beq.n	834ac <_fclose_r+0x80>
   83430:	b570      	push	{r4, r5, r6, lr}
   83432:	4605      	mov	r5, r0
   83434:	460c      	mov	r4, r1
   83436:	b108      	cbz	r0, 8343c <_fclose_r+0x10>
   83438:	6b83      	ldr	r3, [r0, #56]	; 0x38
   8343a:	b37b      	cbz	r3, 8349c <_fclose_r+0x70>
   8343c:	f9b4 300c 	ldrsh.w	r3, [r4, #12]
   83440:	b90b      	cbnz	r3, 83446 <_fclose_r+0x1a>
   83442:	2000      	movs	r0, #0
   83444:	bd70      	pop	{r4, r5, r6, pc}
   83446:	4628      	mov	r0, r5
   83448:	4621      	mov	r1, r4
   8344a:	f7fe fba9 	bl	81ba0 <__sflush_r>
   8344e:	6ae3      	ldr	r3, [r4, #44]	; 0x2c
   83450:	4606      	mov	r6, r0
   83452:	b133      	cbz	r3, 83462 <_fclose_r+0x36>
   83454:	4628      	mov	r0, r5
   83456:	69e1      	ldr	r1, [r4, #28]
   83458:	4798      	blx	r3
   8345a:	2800      	cmp	r0, #0
   8345c:	bfb8      	it	lt
   8345e:	f04f 36ff 	movlt.w	r6, #4294967295
   83462:	89a3      	ldrh	r3, [r4, #12]
   83464:	061b      	lsls	r3, r3, #24
   83466:	d41c      	bmi.n	834a2 <_fclose_r+0x76>
   83468:	6b21      	ldr	r1, [r4, #48]	; 0x30
   8346a:	b141      	cbz	r1, 8347e <_fclose_r+0x52>
   8346c:	f104 0340 	add.w	r3, r4, #64	; 0x40
   83470:	4299      	cmp	r1, r3
   83472:	d002      	beq.n	8347a <_fclose_r+0x4e>
   83474:	4628      	mov	r0, r5
   83476:	f7fe fda3 	bl	81fc0 <_free_r>
   8347a:	2300      	movs	r3, #0
   8347c:	6323      	str	r3, [r4, #48]	; 0x30
   8347e:	6c61      	ldr	r1, [r4, #68]	; 0x44
   83480:	b121      	cbz	r1, 8348c <_fclose_r+0x60>
   83482:	4628      	mov	r0, r5
   83484:	f7fe fd9c 	bl	81fc0 <_free_r>
   83488:	2300      	movs	r3, #0
   8348a:	6463      	str	r3, [r4, #68]	; 0x44
   8348c:	f7fe fcc6 	bl	81e1c <__sfp_lock_acquire>
   83490:	2300      	movs	r3, #0
   83492:	81a3      	strh	r3, [r4, #12]
   83494:	f7fe fcc4 	bl	81e20 <__sfp_lock_release>
   83498:	4630      	mov	r0, r6
   8349a:	bd70      	pop	{r4, r5, r6, pc}
   8349c:	f7fe fcb8 	bl	81e10 <__sinit>
   834a0:	e7cc      	b.n	8343c <_fclose_r+0x10>
   834a2:	4628      	mov	r0, r5
   834a4:	6921      	ldr	r1, [r4, #16]
   834a6:	f7fe fd8b 	bl	81fc0 <_free_r>
   834aa:	e7dd      	b.n	83468 <_fclose_r+0x3c>
   834ac:	2000      	movs	r0, #0
   834ae:	4770      	bx	lr

000834b0 <_fstat_r>:
   834b0:	b538      	push	{r3, r4, r5, lr}
   834b2:	4c08      	ldr	r4, [pc, #32]	; (834d4 <_fstat_r+0x24>)
   834b4:	2300      	movs	r3, #0
   834b6:	4605      	mov	r5, r0
   834b8:	4608      	mov	r0, r1
   834ba:	4611      	mov	r1, r2
   834bc:	6023      	str	r3, [r4, #0]
   834be:	f7fd fa3c 	bl	8093a <_fstat>
   834c2:	1c43      	adds	r3, r0, #1
   834c4:	d000      	beq.n	834c8 <_fstat_r+0x18>
   834c6:	bd38      	pop	{r3, r4, r5, pc}
   834c8:	6823      	ldr	r3, [r4, #0]
   834ca:	2b00      	cmp	r3, #0
   834cc:	d0fb      	beq.n	834c6 <_fstat_r+0x16>
   834ce:	602b      	str	r3, [r5, #0]
   834d0:	bd38      	pop	{r3, r4, r5, pc}
   834d2:	bf00      	nop
   834d4:	20070a30 	.word	0x20070a30

000834d8 <_isatty_r>:
   834d8:	b538      	push	{r3, r4, r5, lr}
   834da:	4c07      	ldr	r4, [pc, #28]	; (834f8 <_isatty_r+0x20>)
   834dc:	2300      	movs	r3, #0
   834de:	4605      	mov	r5, r0
   834e0:	4608      	mov	r0, r1
   834e2:	6023      	str	r3, [r4, #0]
   834e4:	f7fd fa2e 	bl	80944 <_isatty>
   834e8:	1c43      	adds	r3, r0, #1
   834ea:	d000      	beq.n	834ee <_isatty_r+0x16>
   834ec:	bd38      	pop	{r3, r4, r5, pc}
   834ee:	6823      	ldr	r3, [r4, #0]
   834f0:	2b00      	cmp	r3, #0
   834f2:	d0fb      	beq.n	834ec <_isatty_r+0x14>
   834f4:	602b      	str	r3, [r5, #0]
   834f6:	bd38      	pop	{r3, r4, r5, pc}
   834f8:	20070a30 	.word	0x20070a30

000834fc <_lseek_r>:
   834fc:	b570      	push	{r4, r5, r6, lr}
   834fe:	4c08      	ldr	r4, [pc, #32]	; (83520 <_lseek_r+0x24>)
   83500:	4606      	mov	r6, r0
   83502:	2500      	movs	r5, #0
   83504:	4608      	mov	r0, r1
   83506:	4611      	mov	r1, r2
   83508:	461a      	mov	r2, r3
   8350a:	6025      	str	r5, [r4, #0]
   8350c:	f7fd fa1c 	bl	80948 <_lseek>
   83510:	1c43      	adds	r3, r0, #1
   83512:	d000      	beq.n	83516 <_lseek_r+0x1a>
   83514:	bd70      	pop	{r4, r5, r6, pc}
   83516:	6823      	ldr	r3, [r4, #0]
   83518:	2b00      	cmp	r3, #0
   8351a:	d0fb      	beq.n	83514 <_lseek_r+0x18>
   8351c:	6033      	str	r3, [r6, #0]
   8351e:	bd70      	pop	{r4, r5, r6, pc}
   83520:	20070a30 	.word	0x20070a30

00083524 <_read_r>:
   83524:	b570      	push	{r4, r5, r6, lr}
   83526:	4c08      	ldr	r4, [pc, #32]	; (83548 <_read_r+0x24>)
   83528:	4606      	mov	r6, r0
   8352a:	2500      	movs	r5, #0
   8352c:	4608      	mov	r0, r1
   8352e:	4611      	mov	r1, r2
   83530:	461a      	mov	r2, r3
   83532:	6025      	str	r5, [r4, #0]
   83534:	f7fc fe0c 	bl	80150 <_read>
   83538:	1c43      	adds	r3, r0, #1
   8353a:	d000      	beq.n	8353e <_read_r+0x1a>
   8353c:	bd70      	pop	{r4, r5, r6, pc}
   8353e:	6823      	ldr	r3, [r4, #0]
   83540:	2b00      	cmp	r3, #0
   83542:	d0fb      	beq.n	8353c <_read_r+0x18>
   83544:	6033      	str	r3, [r6, #0]
   83546:	bd70      	pop	{r4, r5, r6, pc}
   83548:	20070a30 	.word	0x20070a30

0008354c <__aeabi_uldivmod>:
   8354c:	b953      	cbnz	r3, 83564 <__aeabi_uldivmod+0x18>
   8354e:	b94a      	cbnz	r2, 83564 <__aeabi_uldivmod+0x18>
   83550:	2900      	cmp	r1, #0
   83552:	bf08      	it	eq
   83554:	2800      	cmpeq	r0, #0
   83556:	bf1c      	itt	ne
   83558:	f04f 31ff 	movne.w	r1, #4294967295
   8355c:	f04f 30ff 	movne.w	r0, #4294967295
   83560:	f000 b83c 	b.w	835dc <__aeabi_idiv0>
   83564:	b082      	sub	sp, #8
   83566:	46ec      	mov	ip, sp
   83568:	e92d 5000 	stmdb	sp!, {ip, lr}
   8356c:	f000 f81e 	bl	835ac <__gnu_uldivmod_helper>
   83570:	f8dd e004 	ldr.w	lr, [sp, #4]
   83574:	b002      	add	sp, #8
   83576:	bc0c      	pop	{r2, r3}
   83578:	4770      	bx	lr
   8357a:	bf00      	nop

0008357c <__gnu_ldivmod_helper>:
   8357c:	e92d 41f0 	stmdb	sp!, {r4, r5, r6, r7, r8, lr}
   83580:	9c06      	ldr	r4, [sp, #24]
   83582:	4690      	mov	r8, r2
   83584:	4606      	mov	r6, r0
   83586:	460f      	mov	r7, r1
   83588:	461d      	mov	r5, r3
   8358a:	f000 f829 	bl	835e0 <__divdi3>
   8358e:	fb08 fc01 	mul.w	ip, r8, r1
   83592:	fba8 2300 	umull	r2, r3, r8, r0
   83596:	fb00 c505 	mla	r5, r0, r5, ip
   8359a:	1ab2      	subs	r2, r6, r2
   8359c:	442b      	add	r3, r5
   8359e:	eb67 0303 	sbc.w	r3, r7, r3
   835a2:	4686      	mov	lr, r0
   835a4:	e9c4 2300 	strd	r2, r3, [r4]
   835a8:	e8bd 81f0 	ldmia.w	sp!, {r4, r5, r6, r7, r8, pc}

000835ac <__gnu_uldivmod_helper>:
   835ac:	e92d 43f8 	stmdb	sp!, {r3, r4, r5, r6, r7, r8, r9, lr}
   835b0:	9e08      	ldr	r6, [sp, #32]
   835b2:	4617      	mov	r7, r2
   835b4:	4680      	mov	r8, r0
   835b6:	4689      	mov	r9, r1
   835b8:	461d      	mov	r5, r3
   835ba:	f000 f967 	bl	8388c <__udivdi3>
   835be:	fb00 f305 	mul.w	r3, r0, r5
   835c2:	fba0 4507 	umull	r4, r5, r0, r7
   835c6:	fb07 3701 	mla	r7, r7, r1, r3
   835ca:	ebb8 0404 	subs.w	r4, r8, r4
   835ce:	443d      	add	r5, r7
   835d0:	eb69 0505 	sbc.w	r5, r9, r5
   835d4:	e9c6 4500 	strd	r4, r5, [r6]
   835d8:	e8bd 83f8 	ldmia.w	sp!, {r3, r4, r5, r6, r7, r8, r9, pc}

000835dc <__aeabi_idiv0>:
   835dc:	4770      	bx	lr
   835de:	bf00      	nop

000835e0 <__divdi3>:
   835e0:	2900      	cmp	r1, #0
   835e2:	e92d 43f0 	stmdb	sp!, {r4, r5, r6, r7, r8, r9, lr}
   835e6:	f2c0 80a8 	blt.w	8373a <__divdi3+0x15a>
   835ea:	2600      	movs	r6, #0
   835ec:	2b00      	cmp	r3, #0
   835ee:	f2c0 809e 	blt.w	8372e <__divdi3+0x14e>
   835f2:	4681      	mov	r9, r0
   835f4:	468e      	mov	lr, r1
   835f6:	4690      	mov	r8, r2
   835f8:	469c      	mov	ip, r3
   835fa:	4617      	mov	r7, r2
   835fc:	4604      	mov	r4, r0
   835fe:	460d      	mov	r5, r1
   83600:	2b00      	cmp	r3, #0
   83602:	d13d      	bne.n	83680 <__divdi3+0xa0>
   83604:	428a      	cmp	r2, r1
   83606:	d959      	bls.n	836bc <__divdi3+0xdc>
   83608:	fab2 f382 	clz	r3, r2
   8360c:	b13b      	cbz	r3, 8361e <__divdi3+0x3e>
   8360e:	f1c3 0220 	rsb	r2, r3, #32
   83612:	409d      	lsls	r5, r3
   83614:	fa20 f202 	lsr.w	r2, r0, r2
   83618:	409f      	lsls	r7, r3
   8361a:	4315      	orrs	r5, r2
   8361c:	409c      	lsls	r4, r3
   8361e:	0c39      	lsrs	r1, r7, #16
   83620:	fbb5 f0f1 	udiv	r0, r5, r1
   83624:	fa1f fe87 	uxth.w	lr, r7
   83628:	fb01 5510 	mls	r5, r1, r0, r5
   8362c:	fb0e f300 	mul.w	r3, lr, r0
   83630:	0c22      	lsrs	r2, r4, #16
   83632:	ea42 4505 	orr.w	r5, r2, r5, lsl #16
   83636:	42ab      	cmp	r3, r5
   83638:	d909      	bls.n	8364e <__divdi3+0x6e>
   8363a:	19ed      	adds	r5, r5, r7
   8363c:	f100 32ff 	add.w	r2, r0, #4294967295
   83640:	f080 810b 	bcs.w	8385a <__divdi3+0x27a>
   83644:	42ab      	cmp	r3, r5
   83646:	f240 8108 	bls.w	8385a <__divdi3+0x27a>
   8364a:	3802      	subs	r0, #2
   8364c:	443d      	add	r5, r7
   8364e:	1aed      	subs	r5, r5, r3
   83650:	fbb5 f3f1 	udiv	r3, r5, r1
   83654:	fb01 5513 	mls	r5, r1, r3, r5
   83658:	fb0e fe03 	mul.w	lr, lr, r3
   8365c:	b2a4      	uxth	r4, r4
   8365e:	ea44 4505 	orr.w	r5, r4, r5, lsl #16
   83662:	45ae      	cmp	lr, r5
   83664:	d908      	bls.n	83678 <__divdi3+0x98>
   83666:	19ed      	adds	r5, r5, r7
   83668:	f103 32ff 	add.w	r2, r3, #4294967295
   8366c:	f080 80f7 	bcs.w	8385e <__divdi3+0x27e>
   83670:	45ae      	cmp	lr, r5
   83672:	f240 80f4 	bls.w	8385e <__divdi3+0x27e>
   83676:	3b02      	subs	r3, #2
   83678:	ea43 4300 	orr.w	r3, r3, r0, lsl #16
   8367c:	2200      	movs	r2, #0
   8367e:	e003      	b.n	83688 <__divdi3+0xa8>
   83680:	428b      	cmp	r3, r1
   83682:	d90f      	bls.n	836a4 <__divdi3+0xc4>
   83684:	2200      	movs	r2, #0
   83686:	4613      	mov	r3, r2
   83688:	1c34      	adds	r4, r6, #0
   8368a:	bf18      	it	ne
   8368c:	2401      	movne	r4, #1
   8368e:	4260      	negs	r0, r4
   83690:	f04f 0500 	mov.w	r5, #0
   83694:	eb65 0145 	sbc.w	r1, r5, r5, lsl #1
   83698:	4058      	eors	r0, r3
   8369a:	4051      	eors	r1, r2
   8369c:	1900      	adds	r0, r0, r4
   8369e:	4169      	adcs	r1, r5
   836a0:	e8bd 83f0 	ldmia.w	sp!, {r4, r5, r6, r7, r8, r9, pc}
   836a4:	fab3 f283 	clz	r2, r3
   836a8:	2a00      	cmp	r2, #0
   836aa:	f040 8089 	bne.w	837c0 <__divdi3+0x1e0>
   836ae:	428b      	cmp	r3, r1
   836b0:	d302      	bcc.n	836b8 <__divdi3+0xd8>
   836b2:	4580      	cmp	r8, r0
   836b4:	f200 80e2 	bhi.w	8387c <__divdi3+0x29c>
   836b8:	2301      	movs	r3, #1
   836ba:	e7e5      	b.n	83688 <__divdi3+0xa8>
   836bc:	b912      	cbnz	r2, 836c4 <__divdi3+0xe4>
   836be:	2301      	movs	r3, #1
   836c0:	fbb3 f7f2 	udiv	r7, r3, r2
   836c4:	fab7 f887 	clz	r8, r7
   836c8:	f1b8 0f00 	cmp.w	r8, #0
   836cc:	d13b      	bne.n	83746 <__divdi3+0x166>
   836ce:	1bed      	subs	r5, r5, r7
   836d0:	ea4f 4c17 	mov.w	ip, r7, lsr #16
   836d4:	fa1f fe87 	uxth.w	lr, r7
   836d8:	2201      	movs	r2, #1
   836da:	fbb5 f0fc 	udiv	r0, r5, ip
   836de:	fb0c 5510 	mls	r5, ip, r0, r5
   836e2:	fb0e f300 	mul.w	r3, lr, r0
   836e6:	0c21      	lsrs	r1, r4, #16
   836e8:	ea41 4505 	orr.w	r5, r1, r5, lsl #16
   836ec:	42ab      	cmp	r3, r5
   836ee:	d907      	bls.n	83700 <__divdi3+0x120>
   836f0:	19ed      	adds	r5, r5, r7
   836f2:	f100 31ff 	add.w	r1, r0, #4294967295
   836f6:	d202      	bcs.n	836fe <__divdi3+0x11e>
   836f8:	42ab      	cmp	r3, r5
   836fa:	f200 80c3 	bhi.w	83884 <__divdi3+0x2a4>
   836fe:	4608      	mov	r0, r1
   83700:	1aed      	subs	r5, r5, r3
   83702:	fbb5 f3fc 	udiv	r3, r5, ip
   83706:	fb0c 5513 	mls	r5, ip, r3, r5
   8370a:	fb0e fe03 	mul.w	lr, lr, r3
   8370e:	b2a4      	uxth	r4, r4
   83710:	ea44 4505 	orr.w	r5, r4, r5, lsl #16
   83714:	45ae      	cmp	lr, r5
   83716:	d907      	bls.n	83728 <__divdi3+0x148>
   83718:	19ed      	adds	r5, r5, r7
   8371a:	f103 31ff 	add.w	r1, r3, #4294967295
   8371e:	d202      	bcs.n	83726 <__divdi3+0x146>
   83720:	45ae      	cmp	lr, r5
   83722:	f200 80ad 	bhi.w	83880 <__divdi3+0x2a0>
   83726:	460b      	mov	r3, r1
   83728:	ea43 4300 	orr.w	r3, r3, r0, lsl #16
   8372c:	e7ac      	b.n	83688 <__divdi3+0xa8>
   8372e:	4252      	negs	r2, r2
   83730:	ea6f 0606 	mvn.w	r6, r6
   83734:	eb63 0343 	sbc.w	r3, r3, r3, lsl #1
   83738:	e75b      	b.n	835f2 <__divdi3+0x12>
   8373a:	4240      	negs	r0, r0
   8373c:	eb61 0141 	sbc.w	r1, r1, r1, lsl #1
   83740:	f04f 36ff 	mov.w	r6, #4294967295
   83744:	e752      	b.n	835ec <__divdi3+0xc>
   83746:	fa07 f708 	lsl.w	r7, r7, r8
   8374a:	f1c8 0220 	rsb	r2, r8, #32
   8374e:	fa25 f302 	lsr.w	r3, r5, r2
   83752:	ea4f 4c17 	mov.w	ip, r7, lsr #16
   83756:	fbb3 f1fc 	udiv	r1, r3, ip
   8375a:	fa1f fe87 	uxth.w	lr, r7
   8375e:	fb0c 3311 	mls	r3, ip, r1, r3
   83762:	fa24 f202 	lsr.w	r2, r4, r2
   83766:	fa05 f508 	lsl.w	r5, r5, r8
   8376a:	fb0e f901 	mul.w	r9, lr, r1
   8376e:	432a      	orrs	r2, r5
   83770:	0c10      	lsrs	r0, r2, #16
   83772:	ea40 4303 	orr.w	r3, r0, r3, lsl #16
   83776:	4599      	cmp	r9, r3
   83778:	fa04 f408 	lsl.w	r4, r4, r8
   8377c:	d907      	bls.n	8378e <__divdi3+0x1ae>
   8377e:	19db      	adds	r3, r3, r7
   83780:	f101 30ff 	add.w	r0, r1, #4294967295
   83784:	d278      	bcs.n	83878 <__divdi3+0x298>
   83786:	4599      	cmp	r9, r3
   83788:	d976      	bls.n	83878 <__divdi3+0x298>
   8378a:	3902      	subs	r1, #2
   8378c:	443b      	add	r3, r7
   8378e:	ebc9 0303 	rsb	r3, r9, r3
   83792:	fbb3 f0fc 	udiv	r0, r3, ip
   83796:	fb0c 3310 	mls	r3, ip, r0, r3
   8379a:	fb0e f500 	mul.w	r5, lr, r0
   8379e:	b292      	uxth	r2, r2
   837a0:	ea42 4303 	orr.w	r3, r2, r3, lsl #16
   837a4:	429d      	cmp	r5, r3
   837a6:	d907      	bls.n	837b8 <__divdi3+0x1d8>
   837a8:	19db      	adds	r3, r3, r7
   837aa:	f100 32ff 	add.w	r2, r0, #4294967295
   837ae:	d25f      	bcs.n	83870 <__divdi3+0x290>
   837b0:	429d      	cmp	r5, r3
   837b2:	d95d      	bls.n	83870 <__divdi3+0x290>
   837b4:	3802      	subs	r0, #2
   837b6:	443b      	add	r3, r7
   837b8:	1b5d      	subs	r5, r3, r5
   837ba:	ea40 4201 	orr.w	r2, r0, r1, lsl #16
   837be:	e78c      	b.n	836da <__divdi3+0xfa>
   837c0:	f1c2 0320 	rsb	r3, r2, #32
   837c4:	fa28 f103 	lsr.w	r1, r8, r3
   837c8:	fa0c fc02 	lsl.w	ip, ip, r2
   837cc:	ea41 0c0c 	orr.w	ip, r1, ip
   837d0:	ea4f 401c 	mov.w	r0, ip, lsr #16
   837d4:	fa2e f103 	lsr.w	r1, lr, r3
   837d8:	fbb1 f5f0 	udiv	r5, r1, r0
   837dc:	fa1f f78c 	uxth.w	r7, ip
   837e0:	fb00 1115 	mls	r1, r0, r5, r1
   837e4:	fa29 f303 	lsr.w	r3, r9, r3
   837e8:	fa0e fe02 	lsl.w	lr, lr, r2
   837ec:	fb07 f905 	mul.w	r9, r7, r5
   837f0:	ea43 0e0e 	orr.w	lr, r3, lr
   837f4:	ea4f 431e 	mov.w	r3, lr, lsr #16
   837f8:	ea43 4101 	orr.w	r1, r3, r1, lsl #16
   837fc:	4589      	cmp	r9, r1
   837fe:	fa08 f802 	lsl.w	r8, r8, r2
   83802:	d908      	bls.n	83816 <__divdi3+0x236>
   83804:	eb11 010c 	adds.w	r1, r1, ip
   83808:	f105 33ff 	add.w	r3, r5, #4294967295
   8380c:	d232      	bcs.n	83874 <__divdi3+0x294>
   8380e:	4589      	cmp	r9, r1
   83810:	d930      	bls.n	83874 <__divdi3+0x294>
   83812:	3d02      	subs	r5, #2
   83814:	4461      	add	r1, ip
   83816:	ebc9 0101 	rsb	r1, r9, r1
   8381a:	fbb1 f3f0 	udiv	r3, r1, r0
   8381e:	fb00 1113 	mls	r1, r0, r3, r1
   83822:	fb07 f703 	mul.w	r7, r7, r3
   83826:	fa1f fe8e 	uxth.w	lr, lr
   8382a:	ea4e 4e01 	orr.w	lr, lr, r1, lsl #16
   8382e:	4577      	cmp	r7, lr
   83830:	d908      	bls.n	83844 <__divdi3+0x264>
   83832:	eb1e 0e0c 	adds.w	lr, lr, ip
   83836:	f103 31ff 	add.w	r1, r3, #4294967295
   8383a:	d217      	bcs.n	8386c <__divdi3+0x28c>
   8383c:	4577      	cmp	r7, lr
   8383e:	d915      	bls.n	8386c <__divdi3+0x28c>
   83840:	3b02      	subs	r3, #2
   83842:	44e6      	add	lr, ip
   83844:	ea43 4305 	orr.w	r3, r3, r5, lsl #16
   83848:	fba3 8908 	umull	r8, r9, r3, r8
   8384c:	ebc7 0e0e 	rsb	lr, r7, lr
   83850:	45ce      	cmp	lr, r9
   83852:	d309      	bcc.n	83868 <__divdi3+0x288>
   83854:	d005      	beq.n	83862 <__divdi3+0x282>
   83856:	2200      	movs	r2, #0
   83858:	e716      	b.n	83688 <__divdi3+0xa8>
   8385a:	4610      	mov	r0, r2
   8385c:	e6f7      	b.n	8364e <__divdi3+0x6e>
   8385e:	4613      	mov	r3, r2
   83860:	e70a      	b.n	83678 <__divdi3+0x98>
   83862:	4094      	lsls	r4, r2
   83864:	4544      	cmp	r4, r8
   83866:	d2f6      	bcs.n	83856 <__divdi3+0x276>
   83868:	3b01      	subs	r3, #1
   8386a:	e7f4      	b.n	83856 <__divdi3+0x276>
   8386c:	460b      	mov	r3, r1
   8386e:	e7e9      	b.n	83844 <__divdi3+0x264>
   83870:	4610      	mov	r0, r2
   83872:	e7a1      	b.n	837b8 <__divdi3+0x1d8>
   83874:	461d      	mov	r5, r3
   83876:	e7ce      	b.n	83816 <__divdi3+0x236>
   83878:	4601      	mov	r1, r0
   8387a:	e788      	b.n	8378e <__divdi3+0x1ae>
   8387c:	4613      	mov	r3, r2
   8387e:	e703      	b.n	83688 <__divdi3+0xa8>
   83880:	3b02      	subs	r3, #2
   83882:	e751      	b.n	83728 <__divdi3+0x148>
   83884:	3802      	subs	r0, #2
   83886:	443d      	add	r5, r7
   83888:	e73a      	b.n	83700 <__divdi3+0x120>
   8388a:	bf00      	nop

0008388c <__udivdi3>:
   8388c:	e92d 43f0 	stmdb	sp!, {r4, r5, r6, r7, r8, r9, lr}
   83890:	2b00      	cmp	r3, #0
   83892:	d144      	bne.n	8391e <__udivdi3+0x92>
   83894:	428a      	cmp	r2, r1
   83896:	4615      	mov	r5, r2
   83898:	4604      	mov	r4, r0
   8389a:	d94f      	bls.n	8393c <__udivdi3+0xb0>
   8389c:	fab2 f782 	clz	r7, r2
   838a0:	460e      	mov	r6, r1
   838a2:	b14f      	cbz	r7, 838b8 <__udivdi3+0x2c>
   838a4:	f1c7 0320 	rsb	r3, r7, #32
   838a8:	40b9      	lsls	r1, r7
   838aa:	fa20 f603 	lsr.w	r6, r0, r3
   838ae:	fa02 f507 	lsl.w	r5, r2, r7
   838b2:	430e      	orrs	r6, r1
   838b4:	fa00 f407 	lsl.w	r4, r0, r7
   838b8:	0c2f      	lsrs	r7, r5, #16
   838ba:	fbb6 f0f7 	udiv	r0, r6, r7
   838be:	fa1f fe85 	uxth.w	lr, r5
   838c2:	fb07 6210 	mls	r2, r7, r0, r6
   838c6:	fb0e f100 	mul.w	r1, lr, r0
   838ca:	0c26      	lsrs	r6, r4, #16
   838cc:	ea46 4302 	orr.w	r3, r6, r2, lsl #16
   838d0:	4299      	cmp	r1, r3
   838d2:	d909      	bls.n	838e8 <__udivdi3+0x5c>
   838d4:	195b      	adds	r3, r3, r5
   838d6:	f100 32ff 	add.w	r2, r0, #4294967295
   838da:	f080 80ee 	bcs.w	83aba <__udivdi3+0x22e>
   838de:	4299      	cmp	r1, r3
   838e0:	f240 80eb 	bls.w	83aba <__udivdi3+0x22e>
   838e4:	3802      	subs	r0, #2
   838e6:	442b      	add	r3, r5
   838e8:	1a59      	subs	r1, r3, r1
   838ea:	fbb1 f3f7 	udiv	r3, r1, r7
   838ee:	fb07 1113 	mls	r1, r7, r3, r1
   838f2:	fb0e fe03 	mul.w	lr, lr, r3
   838f6:	b2a4      	uxth	r4, r4
   838f8:	ea44 4101 	orr.w	r1, r4, r1, lsl #16
   838fc:	458e      	cmp	lr, r1
   838fe:	d908      	bls.n	83912 <__udivdi3+0x86>
   83900:	1949      	adds	r1, r1, r5
   83902:	f103 32ff 	add.w	r2, r3, #4294967295
   83906:	f080 80da 	bcs.w	83abe <__udivdi3+0x232>
   8390a:	458e      	cmp	lr, r1
   8390c:	f240 80d7 	bls.w	83abe <__udivdi3+0x232>
   83910:	3b02      	subs	r3, #2
   83912:	ea43 4000 	orr.w	r0, r3, r0, lsl #16
   83916:	2600      	movs	r6, #0
   83918:	4631      	mov	r1, r6
   8391a:	e8bd 83f0 	ldmia.w	sp!, {r4, r5, r6, r7, r8, r9, pc}
   8391e:	428b      	cmp	r3, r1
   83920:	d847      	bhi.n	839b2 <__udivdi3+0x126>
   83922:	fab3 f683 	clz	r6, r3
   83926:	2e00      	cmp	r6, #0
   83928:	d148      	bne.n	839bc <__udivdi3+0x130>
   8392a:	428b      	cmp	r3, r1
   8392c:	d302      	bcc.n	83934 <__udivdi3+0xa8>
   8392e:	4282      	cmp	r2, r0
   83930:	f200 80cf 	bhi.w	83ad2 <__udivdi3+0x246>
   83934:	2001      	movs	r0, #1
   83936:	4631      	mov	r1, r6
   83938:	e8bd 83f0 	ldmia.w	sp!, {r4, r5, r6, r7, r8, r9, pc}
   8393c:	b912      	cbnz	r2, 83944 <__udivdi3+0xb8>
   8393e:	2501      	movs	r5, #1
   83940:	fbb5 f5f2 	udiv	r5, r5, r2
   83944:	fab5 fc85 	clz	ip, r5
   83948:	f1bc 0f00 	cmp.w	ip, #0
   8394c:	d178      	bne.n	83a40 <__udivdi3+0x1b4>
   8394e:	1b49      	subs	r1, r1, r5
   83950:	0c2f      	lsrs	r7, r5, #16
   83952:	fa1f fe85 	uxth.w	lr, r5
   83956:	2601      	movs	r6, #1
   83958:	fbb1 f0f7 	udiv	r0, r1, r7
   8395c:	fb07 1110 	mls	r1, r7, r0, r1
   83960:	fb0e f200 	mul.w	r2, lr, r0
   83964:	0c23      	lsrs	r3, r4, #16
   83966:	ea43 4101 	orr.w	r1, r3, r1, lsl #16
   8396a:	428a      	cmp	r2, r1
   8396c:	d907      	bls.n	8397e <__udivdi3+0xf2>
   8396e:	1949      	adds	r1, r1, r5
   83970:	f100 33ff 	add.w	r3, r0, #4294967295
   83974:	d202      	bcs.n	8397c <__udivdi3+0xf0>
   83976:	428a      	cmp	r2, r1
   83978:	f200 80bc 	bhi.w	83af4 <__udivdi3+0x268>
   8397c:	4618      	mov	r0, r3
   8397e:	1a89      	subs	r1, r1, r2
   83980:	fbb1 f3f7 	udiv	r3, r1, r7
   83984:	fb07 1113 	mls	r1, r7, r3, r1
   83988:	fb0e fe03 	mul.w	lr, lr, r3
   8398c:	b2a4      	uxth	r4, r4
   8398e:	ea44 4201 	orr.w	r2, r4, r1, lsl #16
   83992:	4596      	cmp	lr, r2
   83994:	d908      	bls.n	839a8 <__udivdi3+0x11c>
   83996:	1952      	adds	r2, r2, r5
   83998:	f103 31ff 	add.w	r1, r3, #4294967295
   8399c:	f080 8091 	bcs.w	83ac2 <__udivdi3+0x236>
   839a0:	4596      	cmp	lr, r2
   839a2:	f240 808e 	bls.w	83ac2 <__udivdi3+0x236>
   839a6:	3b02      	subs	r3, #2
   839a8:	ea43 4000 	orr.w	r0, r3, r0, lsl #16
   839ac:	4631      	mov	r1, r6
   839ae:	e8bd 83f0 	ldmia.w	sp!, {r4, r5, r6, r7, r8, r9, pc}
   839b2:	2600      	movs	r6, #0
   839b4:	4630      	mov	r0, r6
   839b6:	4631      	mov	r1, r6
   839b8:	e8bd 83f0 	ldmia.w	sp!, {r4, r5, r6, r7, r8, r9, pc}
   839bc:	f1c6 0420 	rsb	r4, r6, #32
   839c0:	fa22 f504 	lsr.w	r5, r2, r4
   839c4:	40b3      	lsls	r3, r6
   839c6:	432b      	orrs	r3, r5
   839c8:	fa21 f704 	lsr.w	r7, r1, r4
   839cc:	ea4f 4813 	mov.w	r8, r3, lsr #16
   839d0:	fbb7 fcf8 	udiv	ip, r7, r8
   839d4:	fa1f f983 	uxth.w	r9, r3
   839d8:	fb08 771c 	mls	r7, r8, ip, r7
   839dc:	fa20 fe04 	lsr.w	lr, r0, r4
   839e0:	fa01 f506 	lsl.w	r5, r1, r6
   839e4:	fb09 f40c 	mul.w	r4, r9, ip
   839e8:	ea4e 0505 	orr.w	r5, lr, r5
   839ec:	ea4f 4e15 	mov.w	lr, r5, lsr #16
   839f0:	ea4e 4707 	orr.w	r7, lr, r7, lsl #16
   839f4:	42bc      	cmp	r4, r7
   839f6:	fa02 f206 	lsl.w	r2, r2, r6
   839fa:	d904      	bls.n	83a06 <__udivdi3+0x17a>
   839fc:	18ff      	adds	r7, r7, r3
   839fe:	f10c 31ff 	add.w	r1, ip, #4294967295
   83a02:	d368      	bcc.n	83ad6 <__udivdi3+0x24a>
   83a04:	468c      	mov	ip, r1
   83a06:	1b3f      	subs	r7, r7, r4
   83a08:	fbb7 f4f8 	udiv	r4, r7, r8
   83a0c:	fb08 7714 	mls	r7, r8, r4, r7
   83a10:	fb09 f904 	mul.w	r9, r9, r4
   83a14:	b2ad      	uxth	r5, r5
   83a16:	ea45 4107 	orr.w	r1, r5, r7, lsl #16
   83a1a:	4589      	cmp	r9, r1
   83a1c:	d904      	bls.n	83a28 <__udivdi3+0x19c>
   83a1e:	18c9      	adds	r1, r1, r3
   83a20:	f104 35ff 	add.w	r5, r4, #4294967295
   83a24:	d35d      	bcc.n	83ae2 <__udivdi3+0x256>
   83a26:	462c      	mov	r4, r5
   83a28:	ea44 440c 	orr.w	r4, r4, ip, lsl #16
   83a2c:	fba4 2302 	umull	r2, r3, r4, r2
   83a30:	ebc9 0101 	rsb	r1, r9, r1
   83a34:	4299      	cmp	r1, r3
   83a36:	d349      	bcc.n	83acc <__udivdi3+0x240>
   83a38:	d045      	beq.n	83ac6 <__udivdi3+0x23a>
   83a3a:	4620      	mov	r0, r4
   83a3c:	2600      	movs	r6, #0
   83a3e:	e76b      	b.n	83918 <__udivdi3+0x8c>
   83a40:	f1cc 0420 	rsb	r4, ip, #32
   83a44:	fa05 f50c 	lsl.w	r5, r5, ip
   83a48:	fa21 f304 	lsr.w	r3, r1, r4
   83a4c:	0c2a      	lsrs	r2, r5, #16
   83a4e:	fbb3 f6f2 	udiv	r6, r3, r2
   83a52:	fa1f fe85 	uxth.w	lr, r5
   83a56:	fb02 3816 	mls	r8, r2, r6, r3
   83a5a:	fa20 f704 	lsr.w	r7, r0, r4
   83a5e:	fa01 f10c 	lsl.w	r1, r1, ip
   83a62:	fb0e f906 	mul.w	r9, lr, r6
   83a66:	430f      	orrs	r7, r1
   83a68:	0c3c      	lsrs	r4, r7, #16
   83a6a:	ea44 4308 	orr.w	r3, r4, r8, lsl #16
   83a6e:	4599      	cmp	r9, r3
   83a70:	fa00 f40c 	lsl.w	r4, r0, ip
   83a74:	d907      	bls.n	83a86 <__udivdi3+0x1fa>
   83a76:	195b      	adds	r3, r3, r5
   83a78:	f106 31ff 	add.w	r1, r6, #4294967295
   83a7c:	d238      	bcs.n	83af0 <__udivdi3+0x264>
   83a7e:	4599      	cmp	r9, r3
   83a80:	d936      	bls.n	83af0 <__udivdi3+0x264>
   83a82:	3e02      	subs	r6, #2
   83a84:	442b      	add	r3, r5
   83a86:	ebc9 0303 	rsb	r3, r9, r3
   83a8a:	fbb3 f0f2 	udiv	r0, r3, r2
   83a8e:	fb02 3310 	mls	r3, r2, r0, r3
   83a92:	fb0e f100 	mul.w	r1, lr, r0
   83a96:	b2bf      	uxth	r7, r7
   83a98:	ea47 4303 	orr.w	r3, r7, r3, lsl #16
   83a9c:	4299      	cmp	r1, r3
   83a9e:	d907      	bls.n	83ab0 <__udivdi3+0x224>
   83aa0:	195b      	adds	r3, r3, r5
   83aa2:	f100 37ff 	add.w	r7, r0, #4294967295
   83aa6:	d221      	bcs.n	83aec <__udivdi3+0x260>
   83aa8:	4299      	cmp	r1, r3
   83aaa:	d91f      	bls.n	83aec <__udivdi3+0x260>
   83aac:	3802      	subs	r0, #2
   83aae:	442b      	add	r3, r5
   83ab0:	4617      	mov	r7, r2
   83ab2:	1a59      	subs	r1, r3, r1
   83ab4:	ea40 4606 	orr.w	r6, r0, r6, lsl #16
   83ab8:	e74e      	b.n	83958 <__udivdi3+0xcc>
   83aba:	4610      	mov	r0, r2
   83abc:	e714      	b.n	838e8 <__udivdi3+0x5c>
   83abe:	4613      	mov	r3, r2
   83ac0:	e727      	b.n	83912 <__udivdi3+0x86>
   83ac2:	460b      	mov	r3, r1
   83ac4:	e770      	b.n	839a8 <__udivdi3+0x11c>
   83ac6:	40b0      	lsls	r0, r6
   83ac8:	4290      	cmp	r0, r2
   83aca:	d2b6      	bcs.n	83a3a <__udivdi3+0x1ae>
   83acc:	1e60      	subs	r0, r4, #1
   83ace:	2600      	movs	r6, #0
   83ad0:	e722      	b.n	83918 <__udivdi3+0x8c>
   83ad2:	4630      	mov	r0, r6
   83ad4:	e720      	b.n	83918 <__udivdi3+0x8c>
   83ad6:	42bc      	cmp	r4, r7
   83ad8:	d994      	bls.n	83a04 <__udivdi3+0x178>
   83ada:	f1ac 0c02 	sub.w	ip, ip, #2
   83ade:	441f      	add	r7, r3
   83ae0:	e791      	b.n	83a06 <__udivdi3+0x17a>
   83ae2:	4589      	cmp	r9, r1
   83ae4:	d99f      	bls.n	83a26 <__udivdi3+0x19a>
   83ae6:	3c02      	subs	r4, #2
   83ae8:	4419      	add	r1, r3
   83aea:	e79d      	b.n	83a28 <__udivdi3+0x19c>
   83aec:	4638      	mov	r0, r7
   83aee:	e7df      	b.n	83ab0 <__udivdi3+0x224>
   83af0:	460e      	mov	r6, r1
   83af2:	e7c8      	b.n	83a86 <__udivdi3+0x1fa>
   83af4:	3802      	subs	r0, #2
   83af6:	4429      	add	r1, r5
   83af8:	e741      	b.n	8397e <__udivdi3+0xf2>
   83afa:	bf00      	nop
   83afc:	253d6469 	.word	0x253d6469
   83b00:	6d3a3a69 	.word	0x6d3a3a69
   83b04:	496b7361 	.word	0x496b7361
   83b08:	69253d4e 	.word	0x69253d4e
   83b0c:	74733a3a 	.word	0x74733a3a
   83b10:	73757461 	.word	0x73757461
   83b14:	3a69253d 	.word	0x3a69253d
   83b18:	73616d3a 	.word	0x73616d3a
   83b1c:	69253d6b 	.word	0x69253d6b
   83b20:	00000000 	.word	0x00000000
   83b24:	00000043 	.word	0x00000043

00083b28 <_global_impure_ptr>:
   83b28:	200700f8                                ... 

00083b2c <zeroes.6869>:
   83b2c:	30303030 30303030 30303030 30303030     0000000000000000
   83b3c:	33323130 37363534 42413938 46454443     0123456789ABCDEF
   83b4c:	00000000 33323130 37363534 62613938     ....0123456789ab
   83b5c:	66656463 00000000 6c756e28 0000296c     cdef....(null)..

00083b6c <blanks.6868>:
   83b6c:	20202020 20202020 20202020 20202020                     

00083b7c <_init>:
   83b7c:	b5f8      	push	{r3, r4, r5, r6, r7, lr}
   83b7e:	bf00      	nop
   83b80:	bcf8      	pop	{r3, r4, r5, r6, r7}
   83b82:	bc08      	pop	{r3}
   83b84:	469e      	mov	lr, r3
   83b86:	4770      	bx	lr

00083b88 <__init_array_start>:
   83b88:	00081b81 	.word	0x00081b81

00083b8c <__frame_dummy_init_array_entry>:
   83b8c:	00080119                                ....

00083b90 <_fini>:
   83b90:	b5f8      	push	{r3, r4, r5, r6, r7, lr}
   83b92:	bf00      	nop
   83b94:	bcf8      	pop	{r3, r4, r5, r6, r7}
   83b96:	bc08      	pop	{r3}
   83b98:	469e      	mov	lr, r3
   83b9a:	4770      	bx	lr

00083b9c <__fini_array_start>:
   83b9c:	000800f5 	.word	0x000800f5

Disassembly of section .relocate:

20070000 <SystemInit>:
20070000:	4a1a      	ldr	r2, [pc, #104]	; (2007006c <SystemInit+0x6c>)
20070002:	f44f 6380 	mov.w	r3, #1024	; 0x400
20070006:	6013      	str	r3, [r2, #0]
20070008:	f8c2 3200 	str.w	r3, [r2, #512]	; 0x200
2007000c:	4b18      	ldr	r3, [pc, #96]	; (20070070 <SystemInit+0x70>)
2007000e:	6a1a      	ldr	r2, [r3, #32]
20070010:	01d1      	lsls	r1, r2, #7
20070012:	d502      	bpl.n	2007001a <SystemInit+0x1a>
20070014:	4a17      	ldr	r2, [pc, #92]	; (20070074 <SystemInit+0x74>)
20070016:	621a      	str	r2, [r3, #32]
20070018:	e005      	b.n	20070026 <SystemInit+0x26>
2007001a:	4a17      	ldr	r2, [pc, #92]	; (20070078 <SystemInit+0x78>)
2007001c:	621a      	str	r2, [r3, #32]
2007001e:	6e9a      	ldr	r2, [r3, #104]	; 0x68
20070020:	07d2      	lsls	r2, r2, #31
20070022:	d5fc      	bpl.n	2007001e <SystemInit+0x1e>
20070024:	e7f6      	b.n	20070014 <SystemInit+0x14>
20070026:	6e9a      	ldr	r2, [r3, #104]	; 0x68
20070028:	4911      	ldr	r1, [pc, #68]	; (20070070 <SystemInit+0x70>)
2007002a:	03d0      	lsls	r0, r2, #15
2007002c:	d5fb      	bpl.n	20070026 <SystemInit+0x26>
2007002e:	6b0a      	ldr	r2, [r1, #48]	; 0x30
20070030:	f022 0203 	bic.w	r2, r2, #3
20070034:	f042 0201 	orr.w	r2, r2, #1
20070038:	630a      	str	r2, [r1, #48]	; 0x30
2007003a:	6e9a      	ldr	r2, [r3, #104]	; 0x68
2007003c:	0712      	lsls	r2, r2, #28
2007003e:	d5fc      	bpl.n	2007003a <SystemInit+0x3a>
20070040:	490e      	ldr	r1, [pc, #56]	; (2007007c <SystemInit+0x7c>)
20070042:	4a0b      	ldr	r2, [pc, #44]	; (20070070 <SystemInit+0x70>)
20070044:	6291      	str	r1, [r2, #40]	; 0x28
20070046:	6e9a      	ldr	r2, [r3, #104]	; 0x68
20070048:	0790      	lsls	r0, r2, #30
2007004a:	d5fc      	bpl.n	20070046 <SystemInit+0x46>
2007004c:	4a08      	ldr	r2, [pc, #32]	; (20070070 <SystemInit+0x70>)
2007004e:	2111      	movs	r1, #17
20070050:	6311      	str	r1, [r2, #48]	; 0x30
20070052:	6e9a      	ldr	r2, [r3, #104]	; 0x68
20070054:	0711      	lsls	r1, r2, #28
20070056:	d5fc      	bpl.n	20070052 <SystemInit+0x52>
20070058:	4a05      	ldr	r2, [pc, #20]	; (20070070 <SystemInit+0x70>)
2007005a:	2112      	movs	r1, #18
2007005c:	6311      	str	r1, [r2, #48]	; 0x30
2007005e:	6e9a      	ldr	r2, [r3, #104]	; 0x68
20070060:	0712      	lsls	r2, r2, #28
20070062:	d5fc      	bpl.n	2007005e <SystemInit+0x5e>
20070064:	4a06      	ldr	r2, [pc, #24]	; (20070080 <SystemInit+0x80>)
20070066:	4b07      	ldr	r3, [pc, #28]	; (20070084 <SystemInit+0x84>)
20070068:	601a      	str	r2, [r3, #0]
2007006a:	4770      	bx	lr
2007006c:	400e0a00 	.word	0x400e0a00
20070070:	400e0600 	.word	0x400e0600
20070074:	01370809 	.word	0x01370809
20070078:	00370809 	.word	0x00370809
2007007c:	200d3f01 	.word	0x200d3f01
20070080:	0501bd00 	.word	0x0501bd00
20070084:	200700ec 	.word	0x200700ec

20070088 <system_init_flash>:
20070088:	4b11      	ldr	r3, [pc, #68]	; (200700d0 <system_init_flash+0x48>)
2007008a:	4a12      	ldr	r2, [pc, #72]	; (200700d4 <system_init_flash+0x4c>)
2007008c:	4298      	cmp	r0, r3
2007008e:	4b12      	ldr	r3, [pc, #72]	; (200700d8 <system_init_flash+0x50>)
20070090:	d801      	bhi.n	20070096 <system_init_flash+0xe>
20070092:	2100      	movs	r1, #0
20070094:	e018      	b.n	200700c8 <system_init_flash+0x40>
20070096:	4911      	ldr	r1, [pc, #68]	; (200700dc <system_init_flash+0x54>)
20070098:	4288      	cmp	r0, r1
2007009a:	d802      	bhi.n	200700a2 <system_init_flash+0x1a>
2007009c:	f44f 7180 	mov.w	r1, #256	; 0x100
200700a0:	e012      	b.n	200700c8 <system_init_flash+0x40>
200700a2:	490f      	ldr	r1, [pc, #60]	; (200700e0 <system_init_flash+0x58>)
200700a4:	4288      	cmp	r0, r1
200700a6:	d802      	bhi.n	200700ae <system_init_flash+0x26>
200700a8:	f44f 7100 	mov.w	r1, #512	; 0x200
200700ac:	e00c      	b.n	200700c8 <system_init_flash+0x40>
200700ae:	490d      	ldr	r1, [pc, #52]	; (200700e4 <system_init_flash+0x5c>)
200700b0:	4288      	cmp	r0, r1
200700b2:	d802      	bhi.n	200700ba <system_init_flash+0x32>
200700b4:	f44f 7140 	mov.w	r1, #768	; 0x300
200700b8:	e006      	b.n	200700c8 <system_init_flash+0x40>
200700ba:	490b      	ldr	r1, [pc, #44]	; (200700e8 <system_init_flash+0x60>)
200700bc:	4288      	cmp	r0, r1
200700be:	bf94      	ite	ls
200700c0:	f44f 6180 	movls.w	r1, #1024	; 0x400
200700c4:	f44f 61a0 	movhi.w	r1, #1280	; 0x500
200700c8:	6011      	str	r1, [r2, #0]
200700ca:	6019      	str	r1, [r3, #0]
200700cc:	4770      	bx	lr
200700ce:	bf00      	nop
200700d0:	0121eabf 	.word	0x0121eabf
200700d4:	400e0a00 	.word	0x400e0a00
200700d8:	400e0c00 	.word	0x400e0c00
200700dc:	02faf07f 	.word	0x02faf07f
200700e0:	03d08fff 	.word	0x03d08fff
200700e4:	04c4b3ff 	.word	0x04c4b3ff
200700e8:	055d4a7f 	.word	0x055d4a7f

200700ec <SystemCoreClock>:
200700ec:	003d0900                                ..=.

200700f0 <counter>:
200700f0:	00000001 00000000                       ........

200700f8 <impure_data>:
200700f8:	00000000 200703e4 2007044c 200704b4     ....... L.. ... 
	...
2007012c:	00083b24 00000000 00000000 00000000     $;..............
	...
200701a0:	00000001 00000000 abcd330e e66d1234     .........3..4.m.
200701b0:	0005deec 0000000b 00000000 00000000     ................
	...

20070520 <_impure_ptr>:
20070520:	200700f8                                ... 

20070524 <lc_ctype_charset>:
20070524:	49435341 00000049 00000000 00000000     ASCII...........
	...

20070544 <__mb_cur_max>:
20070544:	00000001                                ....

20070548 <__malloc_av_>:
	...
20070550:	20070548 20070548 20070550 20070550     H.. H.. P.. P.. 
20070560:	20070558 20070558 20070560 20070560     X.. X.. `.. `.. 
20070570:	20070568 20070568 20070570 20070570     h.. h.. p.. p.. 
20070580:	20070578 20070578 20070580 20070580     x.. x.. ... ... 
20070590:	20070588 20070588 20070590 20070590     ... ... ... ... 
200705a0:	20070598 20070598 200705a0 200705a0     ... ... ... ... 
200705b0:	200705a8 200705a8 200705b0 200705b0     ... ... ... ... 
200705c0:	200705b8 200705b8 200705c0 200705c0     ... ... ... ... 
200705d0:	200705c8 200705c8 200705d0 200705d0     ... ... ... ... 
200705e0:	200705d8 200705d8 200705e0 200705e0     ... ... ... ... 
200705f0:	200705e8 200705e8 200705f0 200705f0     ... ... ... ... 
20070600:	200705f8 200705f8 20070600 20070600     ... ... ... ... 
20070610:	20070608 20070608 20070610 20070610     ... ... ... ... 
20070620:	20070618 20070618 20070620 20070620     ... ...  ..  .. 
20070630:	20070628 20070628 20070630 20070630     (.. (.. 0.. 0.. 
20070640:	20070638 20070638 20070640 20070640     8.. 8.. @.. @.. 
20070650:	20070648 20070648 20070650 20070650     H.. H.. P.. P.. 
20070660:	20070658 20070658 20070660 20070660     X.. X.. `.. `.. 
20070670:	20070668 20070668 20070670 20070670     h.. h.. p.. p.. 
20070680:	20070678 20070678 20070680 20070680     x.. x.. ... ... 
20070690:	20070688 20070688 20070690 20070690     ... ... ... ... 
200706a0:	20070698 20070698 200706a0 200706a0     ... ... ... ... 
200706b0:	200706a8 200706a8 200706b0 200706b0     ... ... ... ... 
200706c0:	200706b8 200706b8 200706c0 200706c0     ... ... ... ... 
200706d0:	200706c8 200706c8 200706d0 200706d0     ... ... ... ... 
200706e0:	200706d8 200706d8 200706e0 200706e0     ... ... ... ... 
200706f0:	200706e8 200706e8 200706f0 200706f0     ... ... ... ... 
20070700:	200706f8 200706f8 20070700 20070700     ... ... ... ... 
20070710:	20070708 20070708 20070710 20070710     ... ... ... ... 
20070720:	20070718 20070718 20070720 20070720     ... ...  ..  .. 
20070730:	20070728 20070728 20070730 20070730     (.. (.. 0.. 0.. 
20070740:	20070738 20070738 20070740 20070740     8.. 8.. @.. @.. 
20070750:	20070748 20070748 20070750 20070750     H.. H.. P.. P.. 
20070760:	20070758 20070758 20070760 20070760     X.. X.. `.. `.. 
20070770:	20070768 20070768 20070770 20070770     h.. h.. p.. p.. 
20070780:	20070778 20070778 20070780 20070780     x.. x.. ... ... 
20070790:	20070788 20070788 20070790 20070790     ... ... ... ... 
200707a0:	20070798 20070798 200707a0 200707a0     ... ... ... ... 
200707b0:	200707a8 200707a8 200707b0 200707b0     ... ... ... ... 
200707c0:	200707b8 200707b8 200707c0 200707c0     ... ... ... ... 
200707d0:	200707c8 200707c8 200707d0 200707d0     ... ... ... ... 
200707e0:	200707d8 200707d8 200707e0 200707e0     ... ... ... ... 
200707f0:	200707e8 200707e8 200707f0 200707f0     ... ... ... ... 
20070800:	200707f8 200707f8 20070800 20070800     ... ... ... ... 
20070810:	20070808 20070808 20070810 20070810     ... ... ... ... 
20070820:	20070818 20070818 20070820 20070820     ... ...  ..  .. 
20070830:	20070828 20070828 20070830 20070830     (.. (.. 0.. 0.. 
20070840:	20070838 20070838 20070840 20070840     8.. 8.. @.. @.. 
20070850:	20070848 20070848 20070850 20070850     H.. H.. P.. P.. 
20070860:	20070858 20070858 20070860 20070860     X.. X.. `.. `.. 
20070870:	20070868 20070868 20070870 20070870     h.. h.. p.. p.. 
20070880:	20070878 20070878 20070880 20070880     x.. x.. ... ... 
20070890:	20070888 20070888 20070890 20070890     ... ... ... ... 
200708a0:	20070898 20070898 200708a0 200708a0     ... ... ... ... 
200708b0:	200708a8 200708a8 200708b0 200708b0     ... ... ... ... 
200708c0:	200708b8 200708b8 200708c0 200708c0     ... ... ... ... 
200708d0:	200708c8 200708c8 200708d0 200708d0     ... ... ... ... 
200708e0:	200708d8 200708d8 200708e0 200708e0     ... ... ... ... 
200708f0:	200708e8 200708e8 200708f0 200708f0     ... ... ... ... 
20070900:	200708f8 200708f8 20070900 20070900     ... ... ... ... 
20070910:	20070908 20070908 20070910 20070910     ... ... ... ... 
20070920:	20070918 20070918 20070920 20070920     ... ...  ..  .. 
20070930:	20070928 20070928 20070930 20070930     (.. (.. 0.. 0.. 
20070940:	20070938 20070938 20070940 20070940     8.. 8.. @.. @.. 

20070950 <__malloc_trim_threshold>:
20070950:	00020000                                ....

20070954 <__malloc_sbrk_base>:
20070954:	ffffffff                                ....

20070958 <__wctomb>:
20070958:	00083321                                !3..
